---
triple:          'arm64-apple-darwin'
binary-path:     '/Users/Viper/Desktop/KMITL-CS-28/Year2/Computer_Graphics_6014/Lab7/main'
relocations:
  - { offsetInCU: 0x26, offset: 0x26, size: 0x8, addend: 0x0, symName: __ZN4MeshC2Ev, symObjAddr: 0x0, symBinAddr: 0x100004224, symSize: 0x24 }
  - { offsetInCU: 0x39D, offset: 0x39D, size: 0x8, addend: 0x0, symName: __ZN4MeshC2Ev, symObjAddr: 0x0, symBinAddr: 0x100004224, symSize: 0x24 }
  - { offsetInCU: 0x3C7, offset: 0x3C7, size: 0x8, addend: 0x0, symName: __ZN4MeshC1Ev, symObjAddr: 0x24, symBinAddr: 0x100004248, symSize: 0x2C }
  - { offsetInCU: 0x3F1, offset: 0x3F1, size: 0x8, addend: 0x0, symName: __ZN4MeshD2Ev, symObjAddr: 0x50, symBinAddr: 0x100004274, symSize: 0x2C }
  - { offsetInCU: 0x41B, offset: 0x41B, size: 0x8, addend: 0x0, symName: __ZN4Mesh9ClearMeshEv, symObjAddr: 0x7C, symBinAddr: 0x1000042A0, symSize: 0xE4 }
  - { offsetInCU: 0x441, offset: 0x441, size: 0x8, addend: 0x0, symName: __ZN4MeshD1Ev, symObjAddr: 0x160, symBinAddr: 0x100004384, symSize: 0x2C }
  - { offsetInCU: 0x46B, offset: 0x46B, size: 0x8, addend: 0x0, symName: __ZN4Mesh10CreateMeshEPfPjjj, symObjAddr: 0x18C, symBinAddr: 0x1000043B0, symSize: 0x1C0 }
  - { offsetInCU: 0x4C9, offset: 0x4C9, size: 0x8, addend: 0x0, symName: __ZN4Mesh10RenderMeshEv, symObjAddr: 0x34C, symBinAddr: 0x100004570, symSize: 0xA0 }
  - { offsetInCU: 0x3513, offset: 0x3A07, size: 0x8, addend: 0x0, symName: __ZNSt3__16copy_nB7v160006IPKcmPcEENS_9enable_ifIXsr33__is_cpp17_random_access_iteratorIT_EE5valueET1_E4typeES5_T0_S6_, symObjAddr: 0x24B4, symBinAddr: 0x100006AC4, symSize: 0x44 }
  - { offsetInCU: 0x56D8, offset: 0x5BCC, size: 0x8, addend: 0x0, symName: __ZNSt3__17getlineB7v160006IcNS_11char_traitsIcEENS_9allocatorIcEEEERNS_13basic_istreamIT_T0_EES9_RNS_12basic_stringIS6_S7_T1_EE, symObjAddr: 0x864, symBinAddr: 0x100004E74, symSize: 0x5C }
  - { offsetInCU: 0x5730, offset: 0x5C24, size: 0x8, addend: 0x0, symName: __ZNSt3__1plB7v160006IcNS_11char_traitsIcEENS_9allocatorIcEEEENS_12basic_stringIT_T0_T1_EERKS9_PKS6_, symObjAddr: 0x90C, symBinAddr: 0x100004F1C, symSize: 0x11C }
  - { offsetInCU: 0x57DC, offset: 0x5CD0, size: 0x8, addend: 0x0, symName: __ZNSt3__112__to_addressB7v160006IKcEEPT_S3_, symObjAddr: 0xDC4, symBinAddr: 0x1000053D4, symSize: 0x14 }
  - { offsetInCU: 0x5811, offset: 0x5D05, size: 0x8, addend: 0x0, symName: __ZNSt3__130__libcpp_is_constant_evaluatedB7v160006Ev, symObjAddr: 0xEF0, symBinAddr: 0x100005500, symSize: 0xC }
  - { offsetInCU: 0x5861, offset: 0x5D55, size: 0x8, addend: 0x0, symName: __ZNSt3__119__debug_db_insert_cB7v160006INS_12basic_stringIcNS_11char_traitsIcEENS_9allocatorIcEEEEEEvPT_, symObjAddr: 0xFC8, symBinAddr: 0x1000055D8, symSize: 0x10 }
  - { offsetInCU: 0x5892, offset: 0x5D86, size: 0x8, addend: 0x0, symName: __ZNSt3__117__libcpp_allocateB7v160006Emm, symObjAddr: 0x1454, symBinAddr: 0x100005A64, symSize: 0x28 }
  - { offsetInCU: 0x58CF, offset: 0x5DC3, size: 0x8, addend: 0x0, symName: __ZNSt3__121__libcpp_operator_newB7v160006IJmEEEPvDpT_, symObjAddr: 0x1490, symBinAddr: 0x100005AA0, symSize: 0x24 }
  - { offsetInCU: 0x5908, offset: 0x5DFC, size: 0x8, addend: 0x0, symName: __ZNSt3__118__constexpr_strlenB7v160006EPKc, symObjAddr: 0x1730, symBinAddr: 0x100005D40, symSize: 0x24 }
  - { offsetInCU: 0x5934, offset: 0x5E28, size: 0x8, addend: 0x0, symName: __ZNSt3__17getlineB7v160006IcNS_11char_traitsIcEENS_9allocatorIcEEEERNS_13basic_istreamIT_T0_EES9_RNS_12basic_stringIS6_S7_T1_EES6_, symObjAddr: 0x1778, symBinAddr: 0x100005D88, symSize: 0x238 }
  - { offsetInCU: 0x59F2, offset: 0x5EE6, size: 0x8, addend: 0x0, symName: __ZNSt3__125__debug_db_invalidate_allB7v160006INS_12basic_stringIcNS_11char_traitsIcEENS_9allocatorIcEEEEEEvPT_, symObjAddr: 0x1D80, symBinAddr: 0x100006390, symSize: 0x10 }
  - { offsetInCU: 0x5C58, offset: 0x614C, size: 0x8, addend: 0x0, symName: __ZNSt3__19use_facetB7v160006INS_5ctypeIcEEEERKT_RKNS_6localeE, symObjAddr: 0x1FA8, symBinAddr: 0x1000065B8, symSize: 0x2C }
  - { offsetInCU: 0x6127, offset: 0x661B, size: 0x8, addend: 0x0, symName: __ZNSt3__112__to_addressB7v160006IcEEPT_S2_, symObjAddr: 0x207C, symBinAddr: 0x10000668C, symSize: 0x14 }
  - { offsetInCU: 0x615C, offset: 0x6650, size: 0x8, addend: 0x0, symName: __ZNSt3__120__throw_length_errorB7v160006EPKc, symObjAddr: 0x23D0, symBinAddr: 0x1000069E0, symSize: 0x64 }
  - { offsetInCU: 0x6184, offset: 0x6678, size: 0x8, addend: 0x0, symName: __ZNSt3__14copyB7v160006IPKcPcEET0_T_S5_S4_, symObjAddr: 0x24F8, symBinAddr: 0x100006B08, symSize: 0x40 }
  - { offsetInCU: 0x61DE, offset: 0x66D2, size: 0x8, addend: 0x0, symName: __ZNSt3__16__copyB7v160006INS_17_ClassicAlgPolicyEPKcS3_PcEENS_4pairIT0_T2_EES6_T1_S7_, symObjAddr: 0x2538, symBinAddr: 0x100006B48, symSize: 0x44 }
  - { offsetInCU: 0x624A, offset: 0x673E, size: 0x8, addend: 0x0, symName: __ZNSt3__123__dispatch_copy_or_moveB7v160006INS_17_ClassicAlgPolicyENS_11__copy_loopIS1_EENS_14__copy_trivialEPKcS6_PcEENS_4pairIT2_T4_EES9_T3_SA_, symObjAddr: 0x257C, symBinAddr: 0x100006B8C, symSize: 0x54 }
  - { offsetInCU: 0x62C8, offset: 0x67BC, size: 0x8, addend: 0x0, symName: __ZNSt3__121__unwrap_and_dispatchB7v160006INS_10__overloadINS_11__copy_loopINS_17_ClassicAlgPolicyEEENS_14__copy_trivialEEEPKcS8_PcLi0EEENS_4pairIT0_T2_EESB_T1_SC_, symObjAddr: 0x25D0, symBinAddr: 0x100006BE0, symSize: 0xB4 }
  - { offsetInCU: 0x6356, offset: 0x684A, size: 0x8, addend: 0x0, symName: __ZNSt3__114__unwrap_rangeB7v160006IPKcS2_EENS_4pairIT0_S4_EET_S6_, symObjAddr: 0x2684, symBinAddr: 0x100006C94, symSize: 0x60 }
  - { offsetInCU: 0x6495, offset: 0x6989, size: 0x8, addend: 0x0, symName: __ZNSt3__113__unwrap_iterB7v160006IPcNS_18__unwrap_iter_implIS1_Lb1EEELi0EEEDTclsrT0_8__unwrapclsr3stdE7declvalIT_EEEES5_, symObjAddr: 0x272C, symBinAddr: 0x100006D3C, symSize: 0x24 }
  - { offsetInCU: 0x64D9, offset: 0x69CD, size: 0x8, addend: 0x0, symName: __ZNSt3__19make_pairB7v160006IPKcPcEENS_4pairINS_18__unwrap_ref_decayIT_E4typeENS5_IT0_E4typeEEEOS6_OS9_, symObjAddr: 0x2750, symBinAddr: 0x100006D60, symSize: 0x38 }
  - { offsetInCU: 0x6528, offset: 0x6A1C, size: 0x8, addend: 0x0, symName: __ZNSt3__114__rewrap_rangeB7v160006IPKcS2_EET_S3_T0_, symObjAddr: 0x2788, symBinAddr: 0x100006D98, symSize: 0x2C }
  - { offsetInCU: 0x6574, offset: 0x6A68, size: 0x8, addend: 0x0, symName: __ZNSt3__113__rewrap_iterB7v160006IPcS1_NS_18__unwrap_iter_implIS1_Lb1EEEEET_S4_T0_, symObjAddr: 0x27B4, symBinAddr: 0x100006DC4, symSize: 0x50 }
  - { offsetInCU: 0x65C9, offset: 0x6ABD, size: 0x8, addend: 0x0, symName: __ZNSt3__19make_pairB7v160006IPKcS2_EENS_4pairINS_18__unwrap_ref_decayIT_E4typeENS4_IT0_E4typeEEEOS5_OS8_, symObjAddr: 0x2804, symBinAddr: 0x100006E14, symSize: 0x38 }
  - { offsetInCU: 0x6618, offset: 0x6B0C, size: 0x8, addend: 0x0, symName: __ZNSt3__113__unwrap_iterB7v160006IPKcNS_18__unwrap_iter_implIS2_Lb1EEELi0EEEDTclsrT0_8__unwrapclsr3stdE7declvalIT_EEEES6_, symObjAddr: 0x283C, symBinAddr: 0x100006E4C, symSize: 0x24 }
  - { offsetInCU: 0x675C, offset: 0x6C50, size: 0x8, addend: 0x0, symName: __ZNSt3__119__copy_trivial_implB7v160006IKccEENS_4pairIPT_PT0_EES4_S4_S6_, symObjAddr: 0x28F4, symBinAddr: 0x100006F04, symSize: 0x7C }
  - { offsetInCU: 0x67C4, offset: 0x6CB8, size: 0x8, addend: 0x0, symName: __ZNSt3__19make_pairB7v160006IRPKcPcEENS_4pairINS_18__unwrap_ref_decayIT_E4typeENS6_IT0_E4typeEEEOS7_OSA_, symObjAddr: 0x2970, symBinAddr: 0x100006F80, symSize: 0x38 }
  - { offsetInCU: 0x6866, offset: 0x6D5A, size: 0x8, addend: 0x0, symName: __ZNSt3__113__rewrap_iterB7v160006IPKcS2_NS_18__unwrap_iter_implIS2_Lb1EEEEET_S5_T0_, symObjAddr: 0x2A3C, symBinAddr: 0x10000704C, symSize: 0x50 }
  - { offsetInCU: 0x68BB, offset: 0x6DAF, size: 0x8, addend: 0x0, symName: __ZNSt3__16fill_nB7v160006IPcmcEET_S2_T0_RKT1_, symObjAddr: 0x2B1C, symBinAddr: 0x10000712C, symSize: 0x44 }
  - { offsetInCU: 0x691E, offset: 0x6E12, size: 0x8, addend: 0x0, symName: __ZNSt3__18__fill_nB7v160006IPcmcEET_S2_T0_RKT1_, symObjAddr: 0x2B60, symBinAddr: 0x100007170, symSize: 0x64 }
  - { offsetInCU: 0x6981, offset: 0x6E75, size: 0x8, addend: 0x0, symName: __ZNSt3__121__convert_to_integralB7v160006Em, symObjAddr: 0x2BC4, symBinAddr: 0x1000071D4, symSize: 0x14 }
  - { offsetInCU: 0x6B9B, offset: 0x708F, size: 0x8, addend: 0x0, symName: __ZSt28__throw_bad_array_new_lengthB7v160006v, symObjAddr: 0x1420, symBinAddr: 0x100005A30, symSize: 0x34 }
  - { offsetInCU: 0x9015, offset: 0x9509, size: 0x8, addend: 0x0, symName: __ZN6ShaderC2Ev, symObjAddr: 0x0, symBinAddr: 0x100004610, symSize: 0x18 }
  - { offsetInCU: 0x903F, offset: 0x9533, size: 0x8, addend: 0x0, symName: __ZN6ShaderC1Ev, symObjAddr: 0x18, symBinAddr: 0x100004628, symSize: 0x2C }
  - { offsetInCU: 0x9069, offset: 0x955D, size: 0x8, addend: 0x0, symName: __ZN6ShaderD2Ev, symObjAddr: 0x44, symBinAddr: 0x100004654, symSize: 0x2C }
  - { offsetInCU: 0x9093, offset: 0x9587, size: 0x8, addend: 0x0, symName: __ZN6Shader11ClearShaderEv, symObjAddr: 0x70, symBinAddr: 0x100004680, symSize: 0x5C }
  - { offsetInCU: 0x90B9, offset: 0x95AD, size: 0x8, addend: 0x0, symName: __ZN6ShaderD1Ev, symObjAddr: 0xCC, symBinAddr: 0x1000046DC, symSize: 0x2C }
  - { offsetInCU: 0x90E3, offset: 0x95D7, size: 0x8, addend: 0x0, symName: __ZN6Shader15CreateFromFilesEPKcS1_, symObjAddr: 0xF8, symBinAddr: 0x100004708, symSize: 0xD8 }
  - { offsetInCU: 0x915D, offset: 0x9651, size: 0x8, addend: 0x0, symName: __ZN6Shader8ReadFileEPKc, symObjAddr: 0x1D0, symBinAddr: 0x1000047E0, symSize: 0x230 }
  - { offsetInCU: 0x91BF, offset: 0x96B3, size: 0x8, addend: 0x0, symName: __ZNKSt3__112basic_stringIcNS_11char_traitsIcEENS_9allocatorIcEEE5c_strB7v160006Ev, symObjAddr: 0x400, symBinAddr: 0x100004A10, symSize: 0x24 }
  - { offsetInCU: 0x91E4, offset: 0x96D8, size: 0x8, addend: 0x0, symName: __ZN6Shader14CompileShadersEPKcS1_, symObjAddr: 0x424, symBinAddr: 0x100004A34, symSize: 0x204 }
  - { offsetInCU: 0x9244, offset: 0x9738, size: 0x8, addend: 0x0, symName: __ZNSt3__112basic_stringIcNS_11char_traitsIcEENS_9allocatorIcEEEC1B7v160006Ev, symObjAddr: 0x634, symBinAddr: 0x100004C44, symSize: 0x2C }
  - { offsetInCU: 0x940E, offset: 0x9902, size: 0x8, addend: 0x0, symName: __ZNSt3__114basic_ifstreamIcNS_11char_traitsIcEEEC1EPKcj, symObjAddr: 0x660, symBinAddr: 0x100004C70, symSize: 0x17C }
  - { offsetInCU: 0x9457, offset: 0x994B, size: 0x8, addend: 0x0, symName: __ZNKSt3__114basic_ifstreamIcNS_11char_traitsIcEEE7is_openEv, symObjAddr: 0x7DC, symBinAddr: 0x100004DEC, symSize: 0x2C }
  - { offsetInCU: 0x9483, offset: 0x9977, size: 0x8, addend: 0x0, symName: __ZNSt3__112basic_stringIcNS_11char_traitsIcEENS_9allocatorIcEEEC1B7v160006IDnEEPKc, symObjAddr: 0x808, symBinAddr: 0x100004E18, symSize: 0x34 }
  - { offsetInCU: 0x94C0, offset: 0x99B4, size: 0x8, addend: 0x0, symName: __ZNKSt3__19basic_iosIcNS_11char_traitsIcEEE3eofB7v160006Ev, symObjAddr: 0x83C, symBinAddr: 0x100004E4C, symSize: 0x28 }
  - { offsetInCU: 0x94E5, offset: 0x99D9, size: 0x8, addend: 0x0, symName: __ZNSt3__112basic_stringIcNS_11char_traitsIcEENS_9allocatorIcEEE6appendB7v160006ERKS5_, symObjAddr: 0x8C0, symBinAddr: 0x100004ED0, symSize: 0x4C }
  - { offsetInCU: 0x9519, offset: 0x9A0D, size: 0x8, addend: 0x0, symName: __ZNSt3__114basic_ifstreamIcNS_11char_traitsIcEEE5closeEv, symObjAddr: 0xA28, symBinAddr: 0x100005038, symSize: 0x58 }
  - { offsetInCU: 0x9545, offset: 0x9A39, size: 0x8, addend: 0x0, symName: __ZNSt3__114basic_ifstreamIcNS_11char_traitsIcEEED1Ev, symObjAddr: 0xA80, symBinAddr: 0x100005090, symSize: 0x70 }
  - { offsetInCU: 0x9571, offset: 0x9A65, size: 0x8, addend: 0x0, symName: __ZN6Shader9UseShaderEv, symObjAddr: 0xAF0, symBinAddr: 0x100005100, symSize: 0x34 }
  - { offsetInCU: 0x9597, offset: 0x9A8B, size: 0x8, addend: 0x0, symName: __ZN6Shader16CreateFromStringEPKcS1_, symObjAddr: 0xB24, symBinAddr: 0x100005134, symSize: 0x34 }
  - { offsetInCU: 0x95D9, offset: 0x9ACD, size: 0x8, addend: 0x0, symName: __ZN6Shader9AddShaderEjPKcj, symObjAddr: 0xB58, symBinAddr: 0x100005168, symSize: 0x180 }
  - { offsetInCU: 0x9672, offset: 0x9B66, size: 0x8, addend: 0x0, symName: __ZNSt3__114basic_ifstreamIcNS_11char_traitsIcEEED2Ev, symObjAddr: 0xCD8, symBinAddr: 0x1000052E8, symSize: 0x9C }
  - { offsetInCU: 0x96AA, offset: 0x9B9E, size: 0x8, addend: 0x0, symName: __ZTv0_n24_NSt3__114basic_ifstreamIcNS_11char_traitsIcEEED1Ev, symObjAddr: 0xD74, symBinAddr: 0x100005384, symSize: 0x28 }
  - { offsetInCU: 0x96C1, offset: 0x9BB5, size: 0x8, addend: 0x0, symName: __ZNKSt3__112basic_stringIcNS_11char_traitsIcEENS_9allocatorIcEEE4dataB7v160006Ev, symObjAddr: 0xD9C, symBinAddr: 0x1000053AC, symSize: 0x28 }
  - { offsetInCU: 0x96E6, offset: 0x9BDA, size: 0x8, addend: 0x0, symName: __ZNKSt3__112basic_stringIcNS_11char_traitsIcEENS_9allocatorIcEEE13__get_pointerB7v160006Ev, symObjAddr: 0xDD8, symBinAddr: 0x1000053E8, symSize: 0x54 }
  - { offsetInCU: 0x970B, offset: 0x9BFF, size: 0x8, addend: 0x0, symName: __ZNKSt3__112basic_stringIcNS_11char_traitsIcEENS_9allocatorIcEEE9__is_longB7v160006Ev, symObjAddr: 0xE2C, symBinAddr: 0x10000543C, symSize: 0x74 }
  - { offsetInCU: 0x9730, offset: 0x9C24, size: 0x8, addend: 0x0, symName: __ZNKSt3__112basic_stringIcNS_11char_traitsIcEENS_9allocatorIcEEE18__get_long_pointerB7v160006Ev, symObjAddr: 0xEA0, symBinAddr: 0x1000054B0, symSize: 0x28 }
  - { offsetInCU: 0x9755, offset: 0x9C49, size: 0x8, addend: 0x0, symName: __ZNKSt3__112basic_stringIcNS_11char_traitsIcEENS_9allocatorIcEEE19__get_short_pointerB7v160006Ev, symObjAddr: 0xEC8, symBinAddr: 0x1000054D8, symSize: 0x28 }
  - { offsetInCU: 0x977A, offset: 0x9C6E, size: 0x8, addend: 0x0, symName: __ZNKSt3__117__compressed_pairINS_12basic_stringIcNS_11char_traitsIcEENS_9allocatorIcEEE5__repES5_E5firstB7v160006Ev, symObjAddr: 0xEFC, symBinAddr: 0x10000550C, symSize: 0x24 }
  - { offsetInCU: 0x979F, offset: 0x9C93, size: 0x8, addend: 0x0, symName: __ZNKSt3__122__compressed_pair_elemINS_12basic_stringIcNS_11char_traitsIcEENS_9allocatorIcEEE5__repELi0ELb0EE5__getB7v160006Ev, symObjAddr: 0xF20, symBinAddr: 0x100005530, symSize: 0x14 }
  - { offsetInCU: 0x97C4, offset: 0x9CB8, size: 0x8, addend: 0x0, symName: __ZNSt3__114pointer_traitsIPKcE10pointer_toB7v160006ERS1_, symObjAddr: 0xF34, symBinAddr: 0x100005544, symSize: 0x14 }
  - { offsetInCU: 0x97E7, offset: 0x9CDB, size: 0x8, addend: 0x0, symName: __ZNSt3__112basic_stringIcNS_11char_traitsIcEENS_9allocatorIcEEEC2B7v160006Ev, symObjAddr: 0xF48, symBinAddr: 0x100005558, symSize: 0x44 }
  - { offsetInCU: 0x9816, offset: 0x9D0A, size: 0x8, addend: 0x0, symName: __ZNSt3__117__compressed_pairINS_12basic_stringIcNS_11char_traitsIcEENS_9allocatorIcEEE5__repES5_EC1B7v160006INS_18__default_init_tagESA_EEOT_OT0_, symObjAddr: 0xF8C, symBinAddr: 0x10000559C, symSize: 0x3C }
  - { offsetInCU: 0x986D, offset: 0x9D61, size: 0x8, addend: 0x0, symName: __ZNSt3__112basic_stringIcNS_11char_traitsIcEENS_9allocatorIcEEE14__default_initB7v160006Ev, symObjAddr: 0xFD8, symBinAddr: 0x1000055E8, symSize: 0xB0 }
  - { offsetInCU: 0x98BF, offset: 0x9DB3, size: 0x8, addend: 0x0, symName: __ZNSt3__117__compressed_pairINS_12basic_stringIcNS_11char_traitsIcEENS_9allocatorIcEEE5__repES5_EC2B7v160006INS_18__default_init_tagESA_EEOT_OT0_, symObjAddr: 0x1088, symBinAddr: 0x100005698, symSize: 0x3C }
  - { offsetInCU: 0x9916, offset: 0x9E0A, size: 0x8, addend: 0x0, symName: __ZNSt3__122__compressed_pair_elemINS_12basic_stringIcNS_11char_traitsIcEENS_9allocatorIcEEE5__repELi0ELb0EEC2B7v160006ENS_18__default_init_tagE, symObjAddr: 0x10C4, symBinAddr: 0x1000056D4, symSize: 0x14 }
  - { offsetInCU: 0x994A, offset: 0x9E3E, size: 0x8, addend: 0x0, symName: __ZNSt3__122__compressed_pair_elemINS_9allocatorIcEELi1ELb1EEC2B7v160006ENS_18__default_init_tagE, symObjAddr: 0x10D8, symBinAddr: 0x1000056E8, symSize: 0x2C }
  - { offsetInCU: 0x997E, offset: 0x9E72, size: 0x8, addend: 0x0, symName: __ZNSt3__19allocatorIcEC2B7v160006Ev, symObjAddr: 0x1104, symBinAddr: 0x100005714, symSize: 0x2C }
  - { offsetInCU: 0x99A7, offset: 0x9E9B, size: 0x8, addend: 0x0, symName: __ZNSt3__116__non_trivial_ifILb1ENS_9allocatorIcEEEC2B7v160006Ev, symObjAddr: 0x1130, symBinAddr: 0x100005740, symSize: 0x14 }
  - { offsetInCU: 0x99D0, offset: 0x9EC4, size: 0x8, addend: 0x0, symName: __ZNSt3__117__compressed_pairINS_12basic_stringIcNS_11char_traitsIcEENS_9allocatorIcEEE5__repES5_E5firstB7v160006Ev, symObjAddr: 0x1144, symBinAddr: 0x100005754, symSize: 0x24 }
  - { offsetInCU: 0x99F5, offset: 0x9EE9, size: 0x8, addend: 0x0, symName: __ZNSt3__112basic_stringIcNS_11char_traitsIcEENS_9allocatorIcEEE11__recommendB7v160006Em, symObjAddr: 0x1168, symBinAddr: 0x100005778, symSize: 0x9C }
  - { offsetInCU: 0x9A28, offset: 0x9F1C, size: 0x8, addend: 0x0, symName: __ZNSt3__116allocator_traitsINS_9allocatorIcEEE8allocateB7v160006ERS2_m, symObjAddr: 0x1204, symBinAddr: 0x100005814, symSize: 0x2C }
  - { offsetInCU: 0x9A5B, offset: 0x9F4F, size: 0x8, addend: 0x0, symName: __ZNSt3__112basic_stringIcNS_11char_traitsIcEENS_9allocatorIcEEE7__allocB7v160006Ev, symObjAddr: 0x1230, symBinAddr: 0x100005840, symSize: 0x24 }
  - { offsetInCU: 0x9A80, offset: 0x9F74, size: 0x8, addend: 0x0, symName: __ZNSt3__112basic_stringIcNS_11char_traitsIcEENS_9allocatorIcEEE16__begin_lifetimeB7v160006EPcm, symObjAddr: 0x1254, symBinAddr: 0x100005864, symSize: 0x14 }
  - { offsetInCU: 0x9AB3, offset: 0x9FA7, size: 0x8, addend: 0x0, symName: __ZNSt3__112basic_stringIcNS_11char_traitsIcEENS_9allocatorIcEEE18__set_long_pointerB7v160006EPc, symObjAddr: 0x1268, symBinAddr: 0x100005878, symSize: 0x38 }
  - { offsetInCU: 0x9AE7, offset: 0x9FDB, size: 0x8, addend: 0x0, symName: __ZNSt3__112basic_stringIcNS_11char_traitsIcEENS_9allocatorIcEEE14__set_long_capB7v160006Em, symObjAddr: 0x12A0, symBinAddr: 0x1000058B0, symSize: 0x70 }
  - { offsetInCU: 0x9B1B, offset: 0xA00F, size: 0x8, addend: 0x0, symName: __ZNSt3__112basic_stringIcNS_11char_traitsIcEENS_9allocatorIcEEE15__set_long_sizeB7v160006Em, symObjAddr: 0x1310, symBinAddr: 0x100005920, symSize: 0x38 }
  - { offsetInCU: 0x9B4F, offset: 0xA043, size: 0x8, addend: 0x0, symName: __ZNSt3__122__compressed_pair_elemINS_12basic_stringIcNS_11char_traitsIcEENS_9allocatorIcEEE5__repELi0ELb0EE5__getB7v160006Ev, symObjAddr: 0x1348, symBinAddr: 0x100005958, symSize: 0x14 }
  - { offsetInCU: 0x9B74, offset: 0xA068, size: 0x8, addend: 0x0, symName: __ZNSt3__112basic_stringIcNS_11char_traitsIcEENS_9allocatorIcEEE10__align_itB7v160006ILm16EEEmm, symObjAddr: 0x135C, symBinAddr: 0x10000596C, symSize: 0x1C }
  - { offsetInCU: 0x9BA2, offset: 0xA096, size: 0x8, addend: 0x0, symName: __ZNSt3__19allocatorIcE8allocateB7v160006Em, symObjAddr: 0x1378, symBinAddr: 0x100005988, symSize: 0x84 }
  - { offsetInCU: 0x9BDF, offset: 0xA0D3, size: 0x8, addend: 0x0, symName: __ZNSt3__116allocator_traitsINS_9allocatorIcEEE8max_sizeB7v160006IS2_vEEmRKS2_, symObjAddr: 0x13FC, symBinAddr: 0x100005A0C, symSize: 0x24 }
  - { offsetInCU: 0x9C0D, offset: 0xA101, size: 0x8, addend: 0x0, symName: __ZNKSt3__19allocatorIcE8max_sizeB7v160006Ev, symObjAddr: 0x147C, symBinAddr: 0x100005A8C, symSize: 0x14 }
  - { offsetInCU: 0x9C32, offset: 0xA126, size: 0x8, addend: 0x0, symName: __ZNSt3__117__compressed_pairINS_12basic_stringIcNS_11char_traitsIcEENS_9allocatorIcEEE5__repES5_E6secondB7v160006Ev, symObjAddr: 0x14B4, symBinAddr: 0x100005AC4, symSize: 0x24 }
  - { offsetInCU: 0x9C57, offset: 0xA14B, size: 0x8, addend: 0x0, symName: __ZNSt3__122__compressed_pair_elemINS_9allocatorIcEELi1ELb1EE5__getB7v160006Ev, symObjAddr: 0x14D8, symBinAddr: 0x100005AE8, symSize: 0x14 }
  - { offsetInCU: 0x9C7C, offset: 0xA170, size: 0x8, addend: 0x0, symName: __ZNSt3__19basic_iosIcNS_11char_traitsIcEEEC2B7v160006Ev, symObjAddr: 0x14EC, symBinAddr: 0x100005AFC, symSize: 0x44 }
  - { offsetInCU: 0x9CA5, offset: 0xA199, size: 0x8, addend: 0x0, symName: __ZNSt3__113basic_istreamIcNS_11char_traitsIcEEEC2B7v160006EPNS_15basic_streambufIcS2_EE, symObjAddr: 0x1530, symBinAddr: 0x100005B40, symSize: 0x64 }
  - { offsetInCU: 0x9CE8, offset: 0xA1DC, size: 0x8, addend: 0x0, symName: __ZNSt3__19basic_iosIcNS_11char_traitsIcEEE8setstateB7v160006Ej, symObjAddr: 0x1594, symBinAddr: 0x100005BA4, symSize: 0x2C }
  - { offsetInCU: 0x9D1C, offset: 0xA210, size: 0x8, addend: 0x0, symName: __ZNSt3__18ios_baseC2B7v160006Ev, symObjAddr: 0x15C0, symBinAddr: 0x100005BD0, symSize: 0x24 }
  - { offsetInCU: 0x9D45, offset: 0xA239, size: 0x8, addend: 0x0, symName: __ZNSt3__19basic_iosIcNS_11char_traitsIcEEE4initB7v160006EPNS_15basic_streambufIcS2_EE, symObjAddr: 0x15E4, symBinAddr: 0x100005BF4, symSize: 0x44 }
  - { offsetInCU: 0x9D7B, offset: 0xA26F, size: 0x8, addend: 0x0, symName: __ZNSt3__111char_traitsIcE3eofEv, symObjAddr: 0x1628, symBinAddr: 0x100005C38, symSize: 0x8 }
  - { offsetInCU: 0x9D8F, offset: 0xA283, size: 0x8, addend: 0x0, symName: __ZNSt3__18ios_base8setstateB7v160006Ej, symObjAddr: 0x1630, symBinAddr: 0x100005C40, symSize: 0x34 }
  - { offsetInCU: 0x9DC5, offset: 0xA2B9, size: 0x8, addend: 0x0, symName: __ZNKSt3__113basic_filebufIcNS_11char_traitsIcEEE7is_openEv, symObjAddr: 0x1664, symBinAddr: 0x100005C74, symSize: 0x24 }
  - { offsetInCU: 0x9DEC, offset: 0xA2E0, size: 0x8, addend: 0x0, symName: __ZNSt3__112basic_stringIcNS_11char_traitsIcEENS_9allocatorIcEEEC2B7v160006IDnEEPKc, symObjAddr: 0x1688, symBinAddr: 0x100005C98, symSize: 0x60 }
  - { offsetInCU: 0x9E29, offset: 0xA31D, size: 0x8, addend: 0x0, symName: __ZNSt3__111char_traitsIcE6lengthEPKc, symObjAddr: 0x16E8, symBinAddr: 0x100005CF8, symSize: 0x48 }
  - { offsetInCU: 0x9E4C, offset: 0xA340, size: 0x8, addend: 0x0, symName: __ZNKSt3__18ios_base3eofB7v160006Ev, symObjAddr: 0x1754, symBinAddr: 0x100005D64, symSize: 0x24 }
  - { offsetInCU: 0x9E73, offset: 0xA367, size: 0x8, addend: 0x0, symName: __ZNKSt3__19basic_iosIcNS_11char_traitsIcEEE5widenB7v160006Ec, symObjAddr: 0x19B0, symBinAddr: 0x100005FC0, symSize: 0x8C }
  - { offsetInCU: 0x9EC7, offset: 0xA3BB, size: 0x8, addend: 0x0, symName: __ZNKSt3__113basic_istreamIcNS_11char_traitsIcEEE6sentrycvbB7v160006Ev, symObjAddr: 0x1A3C, symBinAddr: 0x10000604C, symSize: 0x1C }
  - { offsetInCU: 0x9EEC, offset: 0xA3E0, size: 0x8, addend: 0x0, symName: __ZNSt3__112basic_stringIcNS_11char_traitsIcEENS_9allocatorIcEEE5clearB7v160006Ev, symObjAddr: 0x1A58, symBinAddr: 0x100006068, symSize: 0x9C }
  - { offsetInCU: 0x9F13, offset: 0xA407, size: 0x8, addend: 0x0, symName: __ZNKSt3__19basic_iosIcNS_11char_traitsIcEEE5rdbufB7v160006Ev, symObjAddr: 0x1AF4, symBinAddr: 0x100006104, symSize: 0x24 }
  - { offsetInCU: 0x9F3A, offset: 0xA42E, size: 0x8, addend: 0x0, symName: __ZNSt3__115basic_streambufIcNS_11char_traitsIcEEE6sbumpcB7v160006Ev, symObjAddr: 0x1B18, symBinAddr: 0x100006128, symSize: 0x78 }
  - { offsetInCU: 0x9F5F, offset: 0xA453, size: 0x8, addend: 0x0, symName: __ZNSt3__111char_traitsIcE11eq_int_typeEii, symObjAddr: 0x1B90, symBinAddr: 0x1000061A0, symSize: 0x28 }
  - { offsetInCU: 0x9F90, offset: 0xA484, size: 0x8, addend: 0x0, symName: __ZNSt3__111char_traitsIcE12to_char_typeEi, symObjAddr: 0x1BB8, symBinAddr: 0x1000061C8, symSize: 0x18 }
  - { offsetInCU: 0x9FB3, offset: 0xA4A7, size: 0x8, addend: 0x0, symName: __ZNSt3__111char_traitsIcE2eqEcc, symObjAddr: 0x1BD0, symBinAddr: 0x1000061E0, symSize: 0x28 }
  - { offsetInCU: 0x9FE4, offset: 0xA4D8, size: 0x8, addend: 0x0, symName: __ZNKSt3__112basic_stringIcNS_11char_traitsIcEENS_9allocatorIcEEE4sizeB7v160006Ev, symObjAddr: 0x1BF8, symBinAddr: 0x100006208, symSize: 0x54 }
  - { offsetInCU: 0xA009, offset: 0xA4FD, size: 0x8, addend: 0x0, symName: __ZNKSt3__112basic_stringIcNS_11char_traitsIcEENS_9allocatorIcEEE8max_sizeB7v160006Ev, symObjAddr: 0x1C4C, symBinAddr: 0x10000625C, symSize: 0xAC }
  - { offsetInCU: 0xA05B, offset: 0xA54F, size: 0x8, addend: 0x0, symName: __ZNSt3__18ios_base18__setstate_nothrowB7v160006Ej, symObjAddr: 0x1CF8, symBinAddr: 0x100006308, symSize: 0x64 }
  - { offsetInCU: 0xA08F, offset: 0xA583, size: 0x8, addend: 0x0, symName: __ZNKSt3__19basic_iosIcNS_11char_traitsIcEEE10exceptionsB7v160006Ev, symObjAddr: 0x1D5C, symBinAddr: 0x10000636C, symSize: 0x24 }
  - { offsetInCU: 0xA0B4, offset: 0xA5A8, size: 0x8, addend: 0x0, symName: __ZNSt3__111char_traitsIcE6assignERcRKc, symObjAddr: 0x1D90, symBinAddr: 0x1000063A0, symSize: 0x24 }
  - { offsetInCU: 0xA0E5, offset: 0xA5D9, size: 0x8, addend: 0x0, symName: __ZNSt3__112basic_stringIcNS_11char_traitsIcEENS_9allocatorIcEEE18__get_long_pointerB7v160006Ev, symObjAddr: 0x1DB4, symBinAddr: 0x1000063C4, symSize: 0x28 }
  - { offsetInCU: 0xA10A, offset: 0xA5FE, size: 0x8, addend: 0x0, symName: __ZNSt3__112basic_stringIcNS_11char_traitsIcEENS_9allocatorIcEEE19__get_short_pointerB7v160006Ev, symObjAddr: 0x1DDC, symBinAddr: 0x1000063EC, symSize: 0x28 }
  - { offsetInCU: 0xA12F, offset: 0xA623, size: 0x8, addend: 0x0, symName: __ZNSt3__112basic_stringIcNS_11char_traitsIcEENS_9allocatorIcEEE16__set_short_sizeB7v160006Em, symObjAddr: 0x1E04, symBinAddr: 0x100006414, symSize: 0x78 }
  - { offsetInCU: 0xA163, offset: 0xA657, size: 0x8, addend: 0x0, symName: __ZNSt3__114pointer_traitsIPcE10pointer_toB7v160006ERc, symObjAddr: 0x1E7C, symBinAddr: 0x10000648C, symSize: 0x14 }
  - { offsetInCU: 0xA186, offset: 0xA67A, size: 0x8, addend: 0x0, symName: __ZNKSt3__18ios_base5rdbufB7v160006Ev, symObjAddr: 0x1E90, symBinAddr: 0x1000064A0, symSize: 0x18 }
  - { offsetInCU: 0xA1AB, offset: 0xA69F, size: 0x8, addend: 0x0, symName: __ZNSt3__111char_traitsIcE11to_int_typeEc, symObjAddr: 0x1EA8, symBinAddr: 0x1000064B8, symSize: 0x14 }
  - { offsetInCU: 0xA1CE, offset: 0xA6C2, size: 0x8, addend: 0x0, symName: __ZNKSt3__112basic_stringIcNS_11char_traitsIcEENS_9allocatorIcEEE15__get_long_sizeB7v160006Ev, symObjAddr: 0x1EBC, symBinAddr: 0x1000064CC, symSize: 0x28 }
  - { offsetInCU: 0xA1F3, offset: 0xA6E7, size: 0x8, addend: 0x0, symName: __ZNKSt3__112basic_stringIcNS_11char_traitsIcEENS_9allocatorIcEEE16__get_short_sizeB7v160006Ev, symObjAddr: 0x1EE4, symBinAddr: 0x1000064F4, symSize: 0x34 }
  - { offsetInCU: 0xA218, offset: 0xA70C, size: 0x8, addend: 0x0, symName: __ZNKSt3__112basic_stringIcNS_11char_traitsIcEENS_9allocatorIcEEE7__allocB7v160006Ev, symObjAddr: 0x1F18, symBinAddr: 0x100006528, symSize: 0x24 }
  - { offsetInCU: 0xA23D, offset: 0xA731, size: 0x8, addend: 0x0, symName: __ZNSt3__114numeric_limitsImE3maxB7v160006Ev, symObjAddr: 0x1F3C, symBinAddr: 0x10000654C, symSize: 0x14 }
  - { offsetInCU: 0xA251, offset: 0xA745, size: 0x8, addend: 0x0, symName: __ZNKSt3__117__compressed_pairINS_12basic_stringIcNS_11char_traitsIcEENS_9allocatorIcEEE5__repES5_E6secondB7v160006Ev, symObjAddr: 0x1F50, symBinAddr: 0x100006560, symSize: 0x24 }
  - { offsetInCU: 0xA276, offset: 0xA76A, size: 0x8, addend: 0x0, symName: __ZNKSt3__122__compressed_pair_elemINS_9allocatorIcEELi1ELb1EE5__getB7v160006Ev, symObjAddr: 0x1F74, symBinAddr: 0x100006584, symSize: 0x14 }
  - { offsetInCU: 0xA29B, offset: 0xA78F, size: 0x8, addend: 0x0, symName: __ZNSt3__123__libcpp_numeric_limitsImLb1EE3maxB7v160006Ev, symObjAddr: 0x1F88, symBinAddr: 0x100006598, symSize: 0x8 }
  - { offsetInCU: 0xA2AF, offset: 0xA7A3, size: 0x8, addend: 0x0, symName: __ZNKSt3__18ios_base10exceptionsB7v160006Ev, symObjAddr: 0x1F90, symBinAddr: 0x1000065A0, symSize: 0x18 }
  - { offsetInCU: 0xA30D, offset: 0xA801, size: 0x8, addend: 0x0, symName: __ZNKSt3__15ctypeIcE5widenB7v160006Ec, symObjAddr: 0x1FD4, symBinAddr: 0x1000065E4, symSize: 0x38 }
  - { offsetInCU: 0xA341, offset: 0xA835, size: 0x8, addend: 0x0, symName: __ZNSt3__116allocator_traitsINS_9allocatorIcEEE37select_on_container_copy_constructionB7v160006IS2_vvEES2_RKS2_, symObjAddr: 0x200C, symBinAddr: 0x10000661C, symSize: 0x10 }
  - { offsetInCU: 0xA370, offset: 0xA864, size: 0x8, addend: 0x0, symName: __ZNKSt3__112basic_stringIcNS_11char_traitsIcEENS_9allocatorIcEEE13get_allocatorB7v160006Ev, symObjAddr: 0x201C, symBinAddr: 0x10000662C, symSize: 0x24 }
  - { offsetInCU: 0xA395, offset: 0xA889, size: 0x8, addend: 0x0, symName: __ZNSt3__112basic_stringIcNS_11char_traitsIcEENS_9allocatorIcEEEC1B7v160006ENS_24__uninitialized_size_tagEmRKS4_, symObjAddr: 0x2040, symBinAddr: 0x100006650, symSize: 0x3C }
  - { offsetInCU: 0xA3E8, offset: 0xA8DC, size: 0x8, addend: 0x0, symName: __ZNSt3__112basic_stringIcNS_11char_traitsIcEENS_9allocatorIcEEE13__get_pointerB7v160006Ev, symObjAddr: 0x2090, symBinAddr: 0x1000066A0, symSize: 0x54 }
  - { offsetInCU: 0xA40D, offset: 0xA901, size: 0x8, addend: 0x0, symName: __ZNSt3__111char_traitsIcE4copyEPcPKcm, symObjAddr: 0x20E4, symBinAddr: 0x1000066F4, symSize: 0x80 }
  - { offsetInCU: 0xA44C, offset: 0xA940, size: 0x8, addend: 0x0, symName: __ZNSt3__111char_traitsIcE6assignEPcmc, symObjAddr: 0x2164, symBinAddr: 0x100006774, symSize: 0x58 }
  - { offsetInCU: 0xA48B, offset: 0xA97F, size: 0x8, addend: 0x0, symName: __ZNSt3__112basic_stringIcNS_11char_traitsIcEENS_9allocatorIcEEEC2B7v160006ENS_24__uninitialized_size_tagEmRKS4_, symObjAddr: 0x21BC, symBinAddr: 0x1000067CC, symSize: 0x118 }
  - { offsetInCU: 0xA50B, offset: 0xA9FF, size: 0x8, addend: 0x0, symName: __ZNSt3__117__compressed_pairINS_12basic_stringIcNS_11char_traitsIcEENS_9allocatorIcEEE5__repES5_EC1B7v160006INS_18__default_init_tagERKS5_EEOT_OT0_, symObjAddr: 0x22D4, symBinAddr: 0x1000068E4, symSize: 0x3C }
  - { offsetInCU: 0xA562, offset: 0xAA56, size: 0x8, addend: 0x0, symName: __ZNKSt3__112basic_stringIcNS_11char_traitsIcEENS_9allocatorIcEEE20__throw_length_errorB7v160006Ev, symObjAddr: 0x2310, symBinAddr: 0x100006920, symSize: 0x1C }
  - { offsetInCU: 0xA587, offset: 0xAA7B, size: 0x8, addend: 0x0, symName: __ZNSt3__112basic_stringIcNS_11char_traitsIcEENS_9allocatorIcEEE13__fits_in_ssoB7v160006Em, symObjAddr: 0x232C, symBinAddr: 0x10000693C, symSize: 0x4C }
  - { offsetInCU: 0xA5AB, offset: 0xAA9F, size: 0x8, addend: 0x0, symName: __ZNSt3__117__compressed_pairINS_12basic_stringIcNS_11char_traitsIcEENS_9allocatorIcEEE5__repES5_EC2B7v160006INS_18__default_init_tagERKS5_EEOT_OT0_, symObjAddr: 0x2378, symBinAddr: 0x100006988, symSize: 0x40 }
  - { offsetInCU: 0xA602, offset: 0xAAF6, size: 0x8, addend: 0x0, symName: __ZNSt3__122__compressed_pair_elemINS_9allocatorIcEELi1ELb1EEC2B7v160006IRKS2_vEEOT_, symObjAddr: 0x23B8, symBinAddr: 0x1000069C8, symSize: 0x18 }
  - { offsetInCU: 0xA643, offset: 0xAB37, size: 0x8, addend: 0x0, symName: __ZNSt12length_errorC1B7v160006EPKc, symObjAddr: 0x2434, symBinAddr: 0x100006A44, symSize: 0x34 }
  - { offsetInCU: 0xA67A, offset: 0xAB6E, size: 0x8, addend: 0x0, symName: __ZNSt12length_errorC2B7v160006EPKc, symObjAddr: 0x2468, symBinAddr: 0x100006A78, symSize: 0x4C }
  - { offsetInCU: 0xA6E9, offset: 0xABDD, size: 0x8, addend: 0x0, symName: __ZNKSt3__114__copy_trivialclB7v160006IKccLi0EEENS_4pairIPT_PT0_EES5_S5_S7_, symObjAddr: 0x26E4, symBinAddr: 0x100006CF4, symSize: 0x48 }
  - { offsetInCU: 0xA76A, offset: 0xAC5E, size: 0x8, addend: 0x0, symName: __ZNSt3__14pairIPKcS2_EC1B7v160006ERKS2_S5_, symObjAddr: 0x2860, symBinAddr: 0x100006E70, symSize: 0x3C }
  - { offsetInCU: 0xA7AF, offset: 0xACA3, size: 0x8, addend: 0x0, symName: __ZNSt3__14pairIPKcS2_EC2B7v160006ERKS2_S5_, symObjAddr: 0x289C, symBinAddr: 0x100006EAC, symSize: 0x34 }
  - { offsetInCU: 0xA7F4, offset: 0xACE8, size: 0x8, addend: 0x0, symName: __ZNSt3__118__unwrap_iter_implIPKcLb1EE8__unwrapB7v160006ES2_, symObjAddr: 0x28D0, symBinAddr: 0x100006EE0, symSize: 0x24 }
  - { offsetInCU: 0xA817, offset: 0xAD0B, size: 0x8, addend: 0x0, symName: __ZNSt3__14pairIPKcPcEC1B7v160006ERKS2_RKS3_, symObjAddr: 0x29A8, symBinAddr: 0x100006FB8, symSize: 0x3C }
  - { offsetInCU: 0xA85C, offset: 0xAD50, size: 0x8, addend: 0x0, symName: __ZNSt3__14pairIPKcPcEC2B7v160006ERKS2_RKS3_, symObjAddr: 0x29E4, symBinAddr: 0x100006FF4, symSize: 0x34 }
  - { offsetInCU: 0xA8A1, offset: 0xAD95, size: 0x8, addend: 0x0, symName: __ZNSt3__118__unwrap_iter_implIPcLb1EE8__unwrapB7v160006ES1_, symObjAddr: 0x2A18, symBinAddr: 0x100007028, symSize: 0x24 }
  - { offsetInCU: 0xA8C4, offset: 0xADB8, size: 0x8, addend: 0x0, symName: __ZNSt3__118__unwrap_iter_implIPKcLb1EE8__rewrapB7v160006ES2_S2_, symObjAddr: 0x2A8C, symBinAddr: 0x10000709C, symSize: 0x48 }
  - { offsetInCU: 0xA8F5, offset: 0xADE9, size: 0x8, addend: 0x0, symName: __ZNSt3__118__unwrap_iter_implIPcLb1EE8__rewrapB7v160006ES1_S1_, symObjAddr: 0x2AD4, symBinAddr: 0x1000070E4, symSize: 0x48 }
  - { offsetInCU: 0x26, offset: 0xAF15, size: 0x8, addend: 0x0, symName: __ZN6WindowC2Ev, symObjAddr: 0x0, symBinAddr: 0x1000071E8, symSize: 0x34 }
  - { offsetInCU: 0x2C0, offset: 0xB1AF, size: 0x8, addend: 0x0, symName: __ZN6WindowC2Ev, symObjAddr: 0x0, symBinAddr: 0x1000071E8, symSize: 0x34 }
  - { offsetInCU: 0x2EA, offset: 0xB1D9, size: 0x8, addend: 0x0, symName: __ZN6WindowC1Ev, symObjAddr: 0x34, symBinAddr: 0x10000721C, symSize: 0x2C }
  - { offsetInCU: 0x314, offset: 0xB203, size: 0x8, addend: 0x0, symName: __ZN6WindowC2Eiiii, symObjAddr: 0x60, symBinAddr: 0x100007248, symSize: 0x44 }
  - { offsetInCU: 0x376, offset: 0xB265, size: 0x8, addend: 0x0, symName: __ZN6WindowC1Eiiii, symObjAddr: 0xA4, symBinAddr: 0x10000728C, symSize: 0x4C }
  - { offsetInCU: 0x3D8, offset: 0xB2C7, size: 0x8, addend: 0x0, symName: __ZN6WindowD2Ev, symObjAddr: 0xF0, symBinAddr: 0x1000072D8, symSize: 0x34 }
  - { offsetInCU: 0x402, offset: 0xB2F1, size: 0x8, addend: 0x0, symName: __ZN6WindowD1Ev, symObjAddr: 0x124, symBinAddr: 0x10000730C, symSize: 0x2C }
  - { offsetInCU: 0x42C, offset: 0xB31B, size: 0x8, addend: 0x0, symName: __ZN6Window10initialiseEv, symObjAddr: 0x150, symBinAddr: 0x100007338, symSize: 0x1A0 }
  - { offsetInCU: 0x3F, offset: 0xB385, size: 0x8, addend: 0x0, symName: _mainWindow, symObjAddr: 0x2BA08, symBinAddr: 0x100010010, symSize: 0x0 }
  - { offsetInCU: 0x19A, offset: 0xB4E0, size: 0x8, addend: 0x0, symName: _meshList, symObjAddr: 0x2BA28, symBinAddr: 0x100010030, symSize: 0x0 }
  - { offsetInCU: 0x4123, offset: 0xF469, size: 0x8, addend: 0x0, symName: __ZNSt3__119__debug_db_insert_cB7v160006INS_6vectorIP4MeshNS_9allocatorIS3_EEEEEEvPT_, symObjAddr: 0x530, symBinAddr: 0x100007A08, symSize: 0x10 }
  - { offsetInCU: 0x4154, offset: 0xF49A, size: 0x8, addend: 0x0, symName: __ZNSt3__118__debug_db_erase_cB7v160006INS_6vectorIP4MeshNS_9allocatorIS3_EEEEEEvPT_, symObjAddr: 0x7EC, symBinAddr: 0x100007CC4, symSize: 0x10 }
  - { offsetInCU: 0x4185, offset: 0xF4CB, size: 0x8, addend: 0x0, symName: __ZNSt3__112__to_addressB7v160006IP4MeshEEPT_S4_, symObjAddr: 0x930, symBinAddr: 0x100007E08, symSize: 0x14 }
  - { offsetInCU: 0x41BA, offset: 0xF500, size: 0x8, addend: 0x0, symName: __ZNSt3__119__libcpp_deallocateB7v160006EPvmm, symObjAddr: 0xAA0, symBinAddr: 0x100007F6C, symSize: 0x30 }
  - { offsetInCU: 0x4203, offset: 0xF549, size: 0x8, addend: 0x0, symName: __ZNSt3__127__do_deallocate_handle_sizeB7v160006IJEEEvPvmDpT_, symObjAddr: 0xAD0, symBinAddr: 0x100007F9C, symSize: 0x28 }
  - { offsetInCU: 0x4243, offset: 0xF589, size: 0x8, addend: 0x0, symName: __ZNSt3__124__libcpp_operator_deleteB7v160006IJPvEEEvDpT_, symObjAddr: 0xAF8, symBinAddr: 0x100007FC4, symSize: 0x24 }
  - { offsetInCU: 0x4279, offset: 0xF5BF, size: 0x8, addend: 0x0, symName: __ZNSt3__119__debug_db_insert_cB7v160006INS_6vectorI6ShaderNS_9allocatorIS2_EEEEEEvPT_, symObjAddr: 0xC3C, symBinAddr: 0x100008108, symSize: 0x10 }
  - { offsetInCU: 0x42AA, offset: 0xF5F0, size: 0x8, addend: 0x0, symName: __ZNSt3__118__debug_db_erase_cB7v160006INS_6vectorI6ShaderNS_9allocatorIS2_EEEEEEvPT_, symObjAddr: 0xEF8, symBinAddr: 0x1000083C4, symSize: 0x10 }
  - { offsetInCU: 0x42DB, offset: 0xF621, size: 0x8, addend: 0x0, symName: __ZNSt3__112__to_addressB7v160006I6ShaderEEPT_S3_, symObjAddr: 0x103C, symBinAddr: 0x100008508, symSize: 0x14 }
  - { offsetInCU: 0x4310, offset: 0xF656, size: 0x8, addend: 0x0, symName: __ZNSt3__13maxB7v160006ImEERKT_S3_S3_, symObjAddr: 0x1824, symBinAddr: 0x100008CE4, symSize: 0x2C }
  - { offsetInCU: 0x4353, offset: 0xF699, size: 0x8, addend: 0x0, symName: __ZNSt3__13minB7v160006ImEERKT_S3_S3_, symObjAddr: 0x1850, symBinAddr: 0x100008D10, symSize: 0x2C }
  - { offsetInCU: 0x4597, offset: 0xF8DD, size: 0x8, addend: 0x0, symName: __ZNSt3__13minB7v160006ImNS_6__lessImmEEEERKT_S5_S5_T0_, symObjAddr: 0x18DC, symBinAddr: 0x100008D9C, symSize: 0x54 }
  - { offsetInCU: 0x462C, offset: 0xF972, size: 0x8, addend: 0x0, symName: __ZNSt3__13maxB7v160006ImNS_6__lessImmEEEERKT_S5_S5_T0_, symObjAddr: 0x1A9C, symBinAddr: 0x100008E78, symSize: 0x54 }
  - { offsetInCU: 0x4686, offset: 0xF9CC, size: 0x8, addend: 0x0, symName: __ZNSt3__119__allocate_at_leastB7v160006INS_9allocatorIP4MeshEEEENS_19__allocation_resultINS_16allocator_traitsIT_E7pointerEEERS7_m, symObjAddr: 0x1C00, symBinAddr: 0x100008FDC, symSize: 0x40 }
  - { offsetInCU: 0x46C9, offset: 0xFA0F, size: 0x8, addend: 0x0, symName: __ZNSt3__142__uninitialized_allocator_move_if_noexceptB7v160006INS_9allocatorIP4MeshEENS_16reverse_iteratorIPS3_EES7_S3_vEET1_RT_T0_SB_S8_, symObjAddr: 0x1E60, symBinAddr: 0x1000091BC, symSize: 0xE8 }
  - { offsetInCU: 0x4747, offset: 0xFA8D, size: 0x8, addend: 0x0, symName: __ZNSt3__14swapB7v160006IPP4MeshEEvRT_S5_, symObjAddr: 0x1F94, symBinAddr: 0x1000092F0, symSize: 0x3C }
  - { offsetInCU: 0x4798, offset: 0xFADE, size: 0x8, addend: 0x0, symName: __ZNSt3__125__debug_db_invalidate_allB7v160006INS_6vectorIP4MeshNS_9allocatorIS3_EEEEEEvPT_, symObjAddr: 0x207C, symBinAddr: 0x1000093D8, symSize: 0x10 }
  - { offsetInCU: 0x47C9, offset: 0xFB0F, size: 0x8, addend: 0x0, symName: __ZNSt3__1neB7v160006IPP4MeshS3_EEbRKNS_16reverse_iteratorIT_EERKNS4_IT0_EE, symObjAddr: 0x208C, symBinAddr: 0x1000093E8, symSize: 0x48 }
  - { offsetInCU: 0x483C, offset: 0xFB82, size: 0x8, addend: 0x0, symName: __ZNSt3__114__construct_atB7v160006IP4MeshJS2_EPS2_EEPT_S5_DpOT0_, symObjAddr: 0x20D4, symBinAddr: 0x100009430, symSize: 0x2C }
  - { offsetInCU: 0x48AE, offset: 0xFBF4, size: 0x8, addend: 0x0, symName: __ZNSt3__112__to_addressB7v160006INS_16reverse_iteratorIPP4MeshEEvEENS_5decayIDTclsr19__to_address_helperIT_EE6__callclsr3stdE7declvalIRKS7_EEEEE4typeES9_, symObjAddr: 0x2100, symBinAddr: 0x10000945C, symSize: 0x24 }
  - { offsetInCU: 0x48E4, offset: 0xFC2A, size: 0x8, addend: 0x0, symName: __ZNSt3__14moveB7v160006INS_16reverse_iteratorIPP4MeshEES5_EET0_T_S7_S6_, symObjAddr: 0x216C, symBinAddr: 0x1000094C8, symSize: 0x78 }
  - { offsetInCU: 0x4968, offset: 0xFCAE, size: 0x8, addend: 0x0, symName: __ZNSt3__16__moveB7v160006INS_17_ClassicAlgPolicyENS_16reverse_iteratorIPP4MeshEES6_S6_EENS_4pairIT0_T2_EES8_T1_S9_, symObjAddr: 0x2254, symBinAddr: 0x1000095B0, symSize: 0x64 }
  - { offsetInCU: 0x49D4, offset: 0xFD1A, size: 0x8, addend: 0x0, symName: __ZNSt3__123__dispatch_copy_or_moveB7v160006INS_17_ClassicAlgPolicyENS_11__move_loopIS1_EENS_14__move_trivialENS_16reverse_iteratorIPP4MeshEES9_S9_EENS_4pairIT2_T4_EESB_T3_SC_, symObjAddr: 0x22B8, symBinAddr: 0x100009614, symSize: 0x7C }
  - { offsetInCU: 0x4A52, offset: 0xFD98, size: 0x8, addend: 0x0, symName: __ZNSt3__121__unwrap_and_dispatchB7v160006INS_10__overloadINS_11__move_loopINS_17_ClassicAlgPolicyEEENS_14__move_trivialEEENS_16reverse_iteratorIPP4MeshEESB_SB_Li0EEENS_4pairIT0_T2_EESD_T1_SE_, symObjAddr: 0x2334, symBinAddr: 0x100009690, symSize: 0x12C }
  - { offsetInCU: 0x4AE2, offset: 0xFE28, size: 0x8, addend: 0x0, symName: __ZNSt3__114__unwrap_rangeB7v160006INS_16reverse_iteratorIPP4MeshEES5_EENS_4pairIT0_S7_EET_S9_, symObjAddr: 0x2460, symBinAddr: 0x1000097BC, symSize: 0x84 }
  - { offsetInCU: 0x4C2D, offset: 0xFF73, size: 0x8, addend: 0x0, symName: __ZNSt3__113__unwrap_iterB7v160006INS_16reverse_iteratorIPP4MeshEENS_18__unwrap_iter_implIS5_Lb0EEELi0EEEDTclsrT0_8__unwrapclsr3stdE7declvalIT_EEEES9_, symObjAddr: 0x2584, symBinAddr: 0x1000098E0, symSize: 0x44 }
  - { offsetInCU: 0x4C71, offset: 0xFFB7, size: 0x8, addend: 0x0, symName: __ZNSt3__19make_pairB7v160006INS_16reverse_iteratorIPP4MeshEES5_EENS_4pairINS_18__unwrap_ref_decayIT_E4typeENS7_IT0_E4typeEEEOS8_OSB_, symObjAddr: 0x25C8, symBinAddr: 0x100009924, symSize: 0x38 }
  - { offsetInCU: 0x4CC0, offset: 0x10006, size: 0x8, addend: 0x0, symName: __ZNSt3__114__rewrap_rangeB7v160006INS_16reverse_iteratorIPP4MeshEES5_EET_S6_T0_, symObjAddr: 0x2600, symBinAddr: 0x10000995C, symSize: 0x5C }
  - { offsetInCU: 0x4D0C, offset: 0x10052, size: 0x8, addend: 0x0, symName: __ZNSt3__113__rewrap_iterB7v160006INS_16reverse_iteratorIPP4MeshEES5_NS_18__unwrap_iter_implIS5_Lb0EEEEET_S8_T0_, symObjAddr: 0x265C, symBinAddr: 0x1000099B8, symSize: 0x88 }
  - { offsetInCU: 0x4E13, offset: 0x10159, size: 0x8, addend: 0x0, symName: __ZNSt3__119__allocate_at_leastB7v160006INS_9allocatorI6ShaderEEEENS_19__allocation_resultINS_16allocator_traitsIT_E7pointerEEERS6_m, symObjAddr: 0x3160, symBinAddr: 0x10000A4BC, symSize: 0x40 }
  - { offsetInCU: 0x4E56, offset: 0x1019C, size: 0x8, addend: 0x0, symName: __ZNSt3__142__uninitialized_allocator_move_if_noexceptB7v160006INS_9allocatorI6ShaderEENS_16reverse_iteratorIPS2_EES6_S6_EET2_RT_T0_T1_S7_, symObjAddr: 0x3340, symBinAddr: 0x10000A69C, symSize: 0x134 }
  - { offsetInCU: 0x4EF6, offset: 0x1023C, size: 0x8, addend: 0x0, symName: __ZNSt3__14swapB7v160006IP6ShaderEEvRT_S4_, symObjAddr: 0x34C0, symBinAddr: 0x10000A81C, symSize: 0x3C }
  - { offsetInCU: 0x4F47, offset: 0x1028D, size: 0x8, addend: 0x0, symName: __ZNSt3__125__debug_db_invalidate_allB7v160006INS_6vectorI6ShaderNS_9allocatorIS2_EEEEEEvPT_, symObjAddr: 0x35A8, symBinAddr: 0x10000A904, symSize: 0x10 }
  - { offsetInCU: 0x4F78, offset: 0x102BE, size: 0x8, addend: 0x0, symName: __ZNSt3__122__make_exception_guardB7v160006INS_29_AllocatorDestroyRangeReverseINS_9allocatorI6ShaderEENS_16reverse_iteratorIPS3_EEEEEENS_28__exception_guard_exceptionsIT_EESA_, symObjAddr: 0x35B8, symBinAddr: 0x10000A914, symSize: 0x4C }
  - { offsetInCU: 0x4FAE, offset: 0x102F4, size: 0x8, addend: 0x0, symName: __ZNSt3__1neB7v160006IP6ShaderS2_EEbRKNS_16reverse_iteratorIT_EERKNS3_IT0_EE, symObjAddr: 0x3648, symBinAddr: 0x10000A9A4, symSize: 0x48 }
  - { offsetInCU: 0x4FFA, offset: 0x10340, size: 0x8, addend: 0x0, symName: __ZNSt3__112__to_addressB7v160006INS_16reverse_iteratorIP6ShaderEEvEENS_5decayIDTclsr19__to_address_helperIT_EE6__callclsr3stdE7declvalIRKS6_EEEEE4typeES8_, symObjAddr: 0x3690, symBinAddr: 0x10000A9EC, symSize: 0x24 }
  - { offsetInCU: 0x505A, offset: 0x103A0, size: 0x8, addend: 0x0, symName: __ZNSt3__119__allocator_destroyB7v160006INS_9allocatorI6ShaderEENS_16reverse_iteratorINS4_IPS2_EEEES7_EEvRT_T0_T1_, symObjAddr: 0x394C, symBinAddr: 0x10000ACA8, symSize: 0x70 }
  - { offsetInCU: 0x50C0, offset: 0x10406, size: 0x8, addend: 0x0, symName: __ZNSt3__1neB7v160006INS_16reverse_iteratorIP6ShaderEES4_EEbRKNS1_IT_EERKNS1_IT0_EE, symObjAddr: 0x39F8, symBinAddr: 0x10000AD54, symSize: 0x60 }
  - { offsetInCU: 0x510C, offset: 0x10452, size: 0x8, addend: 0x0, symName: __ZNSt3__112__to_addressB7v160006INS_16reverse_iteratorINS1_IP6ShaderEEEEvEENS_5decayIDTclsr19__to_address_helperIT_EE6__callclsr3stdE7declvalIRKS7_EEEEE4typeES9_, symObjAddr: 0x3A58, symBinAddr: 0x10000ADB4, symSize: 0x24 }
  - { offsetInCU: 0x53A7, offset: 0x106ED, size: 0x8, addend: 0x0, symName: _shaderList, symObjAddr: 0x2BA40, symBinAddr: 0x100010048, symSize: 0x0 }
  - { offsetInCU: 0x5573, offset: 0x108B9, size: 0x8, addend: 0x0, symName: __ZL7vShader, symObjAddr: 0x40A0, symBinAddr: 0x100010000, symSize: 0x0 }
  - { offsetInCU: 0x558D, offset: 0x108D3, size: 0x8, addend: 0x0, symName: __ZL7fShader, symObjAddr: 0x40A8, symBinAddr: 0x100010008, symSize: 0x0 }
  - { offsetInCU: 0x55A6, offset: 0x108EC, size: 0x8, addend: 0x0, symName: __ZNSt3__16vectorIP4MeshNS_9allocatorIS2_EEE26__swap_out_circular_bufferERNS_14__split_bufferIS2_RS4_EE, symObjAddr: 0x1650, symBinAddr: 0x100008B10, symSize: 0x118 }
  - { offsetInCU: 0x5603, offset: 0x10949, size: 0x8, addend: 0x0, symName: __ZNSt3__16vectorI6ShaderNS_9allocatorIS1_EEE26__swap_out_circular_bufferERNS_14__split_bufferIS1_RS3_EE, symObjAddr: 0x2DE4, symBinAddr: 0x10000A140, symSize: 0x118 }
  - { offsetInCU: 0x748B, offset: 0x127D1, size: 0x8, addend: 0x0, symName: __ZNSt3__16vectorIP4MeshNS_9allocatorIS2_EEEC1B7v160006Ev, symObjAddr: 0x0, symBinAddr: 0x1000074D8, symSize: 0x2C }
  - { offsetInCU: 0x74B4, offset: 0x127FA, size: 0x8, addend: 0x0, symName: __ZNSt3__16vectorIP4MeshNS_9allocatorIS2_EEED1B7v160006Ev, symObjAddr: 0x2C, symBinAddr: 0x100007504, symSize: 0x2C }
  - { offsetInCU: 0x74DD, offset: 0x12823, size: 0x8, addend: 0x0, symName: __ZNSt3__16vectorI6ShaderNS_9allocatorIS1_EEEC1B7v160006Ev, symObjAddr: 0x58, symBinAddr: 0x100007530, symSize: 0x2C }
  - { offsetInCU: 0x7506, offset: 0x1284C, size: 0x8, addend: 0x0, symName: __ZNSt3__16vectorI6ShaderNS_9allocatorIS1_EEED1B7v160006Ev, symObjAddr: 0x84, symBinAddr: 0x10000755C, symSize: 0x2C }
  - { offsetInCU: 0x752F, offset: 0x12875, size: 0x8, addend: 0x0, symName: __Z14CreateTrianglev, symObjAddr: 0xB0, symBinAddr: 0x100007588, symSize: 0x100 }
  - { offsetInCU: 0x7574, offset: 0x128BA, size: 0x8, addend: 0x0, symName: __ZNSt3__16vectorIP4MeshNS_9allocatorIS2_EEE9push_backB7v160006ERKS2_, symObjAddr: 0x1B0, symBinAddr: 0x100007688, symSize: 0x6C }
  - { offsetInCU: 0x75AA, offset: 0x128F0, size: 0x8, addend: 0x0, symName: __Z13CreateShadersv, symObjAddr: 0x21C, symBinAddr: 0x1000076F4, symSize: 0x80 }
  - { offsetInCU: 0x75D3, offset: 0x12919, size: 0x8, addend: 0x0, symName: __ZNSt3__16vectorI6ShaderNS_9allocatorIS1_EEE9push_backB7v160006ERKS1_, symObjAddr: 0x29C, symBinAddr: 0x100007774, symSize: 0x6C }
  - { offsetInCU: 0x7609, offset: 0x1294F, size: 0x8, addend: 0x0, symName: _main, symObjAddr: 0x308, symBinAddr: 0x1000077E0, symSize: 0xFC }
  - { offsetInCU: 0x7624, offset: 0x1296A, size: 0x8, addend: 0x0, symName: __ZN6Window14getShouldCloseEv, symObjAddr: 0x404, symBinAddr: 0x1000078DC, symSize: 0x34 }
  - { offsetInCU: 0x7649, offset: 0x1298F, size: 0x8, addend: 0x0, symName: __ZNSt3__16vectorI6ShaderNS_9allocatorIS1_EEEixB7v160006Em, symObjAddr: 0x438, symBinAddr: 0x100007910, symSize: 0x24 }
  - { offsetInCU: 0x767F, offset: 0x129C5, size: 0x8, addend: 0x0, symName: __ZNSt3__16vectorIP4MeshNS_9allocatorIS2_EEEixB7v160006Em, symObjAddr: 0x45C, symBinAddr: 0x100007934, symSize: 0x24 }
  - { offsetInCU: 0x76B5, offset: 0x129FB, size: 0x8, addend: 0x0, symName: __ZN6Window11swapBuffersEv, symObjAddr: 0x480, symBinAddr: 0x100007958, symSize: 0x28 }
  - { offsetInCU: 0x76D9, offset: 0x12A1F, size: 0x8, addend: 0x0, symName: __ZNSt3__16vectorIP4MeshNS_9allocatorIS2_EEEC2B7v160006Ev, symObjAddr: 0x4A8, symBinAddr: 0x100007980, symSize: 0x4C }
  - { offsetInCU: 0x770E, offset: 0x12A54, size: 0x8, addend: 0x0, symName: __ZNSt3__117__compressed_pairIPP4MeshNS_9allocatorIS2_EEEC1B7v160006IDnNS_18__default_init_tagEEEOT_OT0_, symObjAddr: 0x4F4, symBinAddr: 0x1000079CC, symSize: 0x3C }
  - { offsetInCU: 0x7765, offset: 0x12AAB, size: 0x8, addend: 0x0, symName: __ZNSt3__117__compressed_pairIPP4MeshNS_9allocatorIS2_EEEC2B7v160006IDnNS_18__default_init_tagEEEOT_OT0_, symObjAddr: 0x540, symBinAddr: 0x100007A18, symSize: 0x40 }
  - { offsetInCU: 0x77BD, offset: 0x12B03, size: 0x8, addend: 0x0, symName: __ZNSt3__122__compressed_pair_elemIPP4MeshLi0ELb0EEC2B7v160006IDnvEEOT_, symObjAddr: 0x580, symBinAddr: 0x100007A58, symSize: 0x1C }
  - { offsetInCU: 0x77FD, offset: 0x12B43, size: 0x8, addend: 0x0, symName: __ZNSt3__122__compressed_pair_elemINS_9allocatorIP4MeshEELi1ELb1EEC2B7v160006ENS_18__default_init_tagE, symObjAddr: 0x59C, symBinAddr: 0x100007A74, symSize: 0x2C }
  - { offsetInCU: 0x7831, offset: 0x12B77, size: 0x8, addend: 0x0, symName: __ZNSt3__19allocatorIP4MeshEC2B7v160006Ev, symObjAddr: 0x5C8, symBinAddr: 0x100007AA0, symSize: 0x2C }
  - { offsetInCU: 0x785B, offset: 0x12BA1, size: 0x8, addend: 0x0, symName: __ZNSt3__116__non_trivial_ifILb1ENS_9allocatorIP4MeshEEEC2B7v160006Ev, symObjAddr: 0x5F4, symBinAddr: 0x100007ACC, symSize: 0x14 }
  - { offsetInCU: 0x7883, offset: 0x12BC9, size: 0x8, addend: 0x0, symName: __ZNSt3__16vectorIP4MeshNS_9allocatorIS2_EEED2B7v160006Ev, symObjAddr: 0x608, symBinAddr: 0x100007AE0, symSize: 0x3C }
  - { offsetInCU: 0x78AC, offset: 0x12BF2, size: 0x8, addend: 0x0, symName: __ZNSt3__16vectorIP4MeshNS_9allocatorIS2_EEE16__destroy_vectorC1ERS5_, symObjAddr: 0x644, symBinAddr: 0x100007B1C, symSize: 0x34 }
  - { offsetInCU: 0x78E5, offset: 0x12C2B, size: 0x8, addend: 0x0, symName: __ZNSt3__16vectorIP4MeshNS_9allocatorIS2_EEE16__destroy_vectorclB7v160006Ev, symObjAddr: 0x678, symBinAddr: 0x100007B50, symSize: 0x9C }
  - { offsetInCU: 0x790A, offset: 0x12C50, size: 0x8, addend: 0x0, symName: __ZNSt3__16vectorIP4MeshNS_9allocatorIS2_EEE16__destroy_vectorC2ERS5_, symObjAddr: 0x714, symBinAddr: 0x100007BEC, symSize: 0x20 }
  - { offsetInCU: 0x7942, offset: 0x12C88, size: 0x8, addend: 0x0, symName: __ZNKSt3__16vectorIP4MeshNS_9allocatorIS2_EEE17__annotate_deleteB7v160006Ev, symObjAddr: 0x734, symBinAddr: 0x100007C0C, symSize: 0xB8 }
  - { offsetInCU: 0x7967, offset: 0x12CAD, size: 0x8, addend: 0x0, symName: __ZNSt3__16vectorIP4MeshNS_9allocatorIS2_EEE7__clearB7v160006Ev, symObjAddr: 0x7FC, symBinAddr: 0x100007CD4, symSize: 0x28 }
  - { offsetInCU: 0x798C, offset: 0x12CD2, size: 0x8, addend: 0x0, symName: __ZNSt3__116allocator_traitsINS_9allocatorIP4MeshEEE10deallocateB7v160006ERS4_PS3_m, symObjAddr: 0x824, symBinAddr: 0x100007CFC, symSize: 0x34 }
  - { offsetInCU: 0x79CE, offset: 0x12D14, size: 0x8, addend: 0x0, symName: __ZNSt3__16vectorIP4MeshNS_9allocatorIS2_EEE7__allocB7v160006Ev, symObjAddr: 0x858, symBinAddr: 0x100007D30, symSize: 0x28 }
  - { offsetInCU: 0x79F3, offset: 0x12D39, size: 0x8, addend: 0x0, symName: __ZNKSt3__16vectorIP4MeshNS_9allocatorIS2_EEE8capacityB7v160006Ev, symObjAddr: 0x880, symBinAddr: 0x100007D58, symSize: 0x40 }
  - { offsetInCU: 0x7A18, offset: 0x12D5E, size: 0x8, addend: 0x0, symName: __ZNKSt3__16vectorIP4MeshNS_9allocatorIS2_EEE31__annotate_contiguous_containerB7v160006EPKvS7_S7_S7_, symObjAddr: 0x8C0, symBinAddr: 0x100007D98, symSize: 0x20 }
  - { offsetInCU: 0x7A6D, offset: 0x12DB3, size: 0x8, addend: 0x0, symName: __ZNKSt3__16vectorIP4MeshNS_9allocatorIS2_EEE4dataB7v160006Ev, symObjAddr: 0x8E0, symBinAddr: 0x100007DB8, symSize: 0x28 }
  - { offsetInCU: 0x7A92, offset: 0x12DD8, size: 0x8, addend: 0x0, symName: __ZNKSt3__16vectorIP4MeshNS_9allocatorIS2_EEE4sizeB7v160006Ev, symObjAddr: 0x908, symBinAddr: 0x100007DE0, symSize: 0x28 }
  - { offsetInCU: 0x7AB7, offset: 0x12DFD, size: 0x8, addend: 0x0, symName: __ZNSt3__16vectorIP4MeshNS_9allocatorIS2_EEE22__base_destruct_at_endB7v160006EPS2_, symObjAddr: 0x944, symBinAddr: 0x100007E1C, symSize: 0xA0 }
  - { offsetInCU: 0x7AFA, offset: 0x12E40, size: 0x8, addend: 0x0, symName: __ZNSt3__116allocator_traitsINS_9allocatorIP4MeshEEE7destroyB7v160006IS3_vEEvRS4_PT_, symObjAddr: 0x9E4, symBinAddr: 0x100007EBC, symSize: 0x2C }
  - { offsetInCU: 0x7B37, offset: 0x12E7D, size: 0x8, addend: 0x0, symName: __ZNSt3__19allocatorIP4MeshE7destroyB7v160006EPS2_, symObjAddr: 0xA10, symBinAddr: 0x100007EE8, symSize: 0x14 }
  - { offsetInCU: 0x7B6A, offset: 0x12EB0, size: 0x8, addend: 0x0, symName: __ZNSt3__19allocatorIP4MeshE10deallocateB7v160006EPS2_m, symObjAddr: 0xA24, symBinAddr: 0x100007EFC, symSize: 0x70 }
  - { offsetInCU: 0x7BAB, offset: 0x12EF1, size: 0x8, addend: 0x0, symName: __ZNSt3__117__compressed_pairIPP4MeshNS_9allocatorIS2_EEE6secondB7v160006Ev, symObjAddr: 0xB1C, symBinAddr: 0x100007FE8, symSize: 0x24 }
  - { offsetInCU: 0x7BD0, offset: 0x12F16, size: 0x8, addend: 0x0, symName: __ZNSt3__122__compressed_pair_elemINS_9allocatorIP4MeshEELi1ELb1EE5__getB7v160006Ev, symObjAddr: 0xB40, symBinAddr: 0x10000800C, symSize: 0x14 }
  - { offsetInCU: 0x7BF5, offset: 0x12F3B, size: 0x8, addend: 0x0, symName: __ZNKSt3__16vectorIP4MeshNS_9allocatorIS2_EEE9__end_capB7v160006Ev, symObjAddr: 0xB54, symBinAddr: 0x100008020, symSize: 0x28 }
  - { offsetInCU: 0x7C1A, offset: 0x12F60, size: 0x8, addend: 0x0, symName: __ZNKSt3__117__compressed_pairIPP4MeshNS_9allocatorIS2_EEE5firstB7v160006Ev, symObjAddr: 0xB7C, symBinAddr: 0x100008048, symSize: 0x24 }
  - { offsetInCU: 0x7C3F, offset: 0x12F85, size: 0x8, addend: 0x0, symName: __ZNKSt3__122__compressed_pair_elemIPP4MeshLi0ELb0EE5__getB7v160006Ev, symObjAddr: 0xBA0, symBinAddr: 0x10000806C, symSize: 0x14 }
  - { offsetInCU: 0x7C63, offset: 0x12FA9, size: 0x8, addend: 0x0, symName: __ZNSt3__16vectorI6ShaderNS_9allocatorIS1_EEEC2B7v160006Ev, symObjAddr: 0xBB4, symBinAddr: 0x100008080, symSize: 0x4C }
  - { offsetInCU: 0x7C8C, offset: 0x12FD2, size: 0x8, addend: 0x0, symName: __ZNSt3__117__compressed_pairIP6ShaderNS_9allocatorIS1_EEEC1B7v160006IDnNS_18__default_init_tagEEEOT_OT0_, symObjAddr: 0xC00, symBinAddr: 0x1000080CC, symSize: 0x3C }
  - { offsetInCU: 0x7CE3, offset: 0x13029, size: 0x8, addend: 0x0, symName: __ZNSt3__117__compressed_pairIP6ShaderNS_9allocatorIS1_EEEC2B7v160006IDnNS_18__default_init_tagEEEOT_OT0_, symObjAddr: 0xC4C, symBinAddr: 0x100008118, symSize: 0x40 }
  - { offsetInCU: 0x7D3B, offset: 0x13081, size: 0x8, addend: 0x0, symName: __ZNSt3__122__compressed_pair_elemIP6ShaderLi0ELb0EEC2B7v160006IDnvEEOT_, symObjAddr: 0xC8C, symBinAddr: 0x100008158, symSize: 0x1C }
  - { offsetInCU: 0x7D7B, offset: 0x130C1, size: 0x8, addend: 0x0, symName: __ZNSt3__122__compressed_pair_elemINS_9allocatorI6ShaderEELi1ELb1EEC2B7v160006ENS_18__default_init_tagE, symObjAddr: 0xCA8, symBinAddr: 0x100008174, symSize: 0x2C }
  - { offsetInCU: 0x7DAF, offset: 0x130F5, size: 0x8, addend: 0x0, symName: __ZNSt3__19allocatorI6ShaderEC2B7v160006Ev, symObjAddr: 0xCD4, symBinAddr: 0x1000081A0, symSize: 0x2C }
  - { offsetInCU: 0x7DD9, offset: 0x1311F, size: 0x8, addend: 0x0, symName: __ZNSt3__116__non_trivial_ifILb1ENS_9allocatorI6ShaderEEEC2B7v160006Ev, symObjAddr: 0xD00, symBinAddr: 0x1000081CC, symSize: 0x14 }
  - { offsetInCU: 0x7E01, offset: 0x13147, size: 0x8, addend: 0x0, symName: __ZNSt3__16vectorI6ShaderNS_9allocatorIS1_EEED2B7v160006Ev, symObjAddr: 0xD14, symBinAddr: 0x1000081E0, symSize: 0x3C }
  - { offsetInCU: 0x7E2A, offset: 0x13170, size: 0x8, addend: 0x0, symName: __ZNSt3__16vectorI6ShaderNS_9allocatorIS1_EEE16__destroy_vectorC1ERS4_, symObjAddr: 0xD50, symBinAddr: 0x10000821C, symSize: 0x34 }
  - { offsetInCU: 0x7E63, offset: 0x131A9, size: 0x8, addend: 0x0, symName: __ZNSt3__16vectorI6ShaderNS_9allocatorIS1_EEE16__destroy_vectorclB7v160006Ev, symObjAddr: 0xD84, symBinAddr: 0x100008250, symSize: 0x9C }
  - { offsetInCU: 0x7E88, offset: 0x131CE, size: 0x8, addend: 0x0, symName: __ZNSt3__16vectorI6ShaderNS_9allocatorIS1_EEE16__destroy_vectorC2ERS4_, symObjAddr: 0xE20, symBinAddr: 0x1000082EC, symSize: 0x20 }
  - { offsetInCU: 0x7EC0, offset: 0x13206, size: 0x8, addend: 0x0, symName: __ZNKSt3__16vectorI6ShaderNS_9allocatorIS1_EEE17__annotate_deleteB7v160006Ev, symObjAddr: 0xE40, symBinAddr: 0x10000830C, symSize: 0xB8 }
  - { offsetInCU: 0x7EE5, offset: 0x1322B, size: 0x8, addend: 0x0, symName: __ZNSt3__16vectorI6ShaderNS_9allocatorIS1_EEE7__clearB7v160006Ev, symObjAddr: 0xF08, symBinAddr: 0x1000083D4, symSize: 0x28 }
  - { offsetInCU: 0x7F0A, offset: 0x13250, size: 0x8, addend: 0x0, symName: __ZNSt3__116allocator_traitsINS_9allocatorI6ShaderEEE10deallocateB7v160006ERS3_PS2_m, symObjAddr: 0xF30, symBinAddr: 0x1000083FC, symSize: 0x34 }
  - { offsetInCU: 0x7F4C, offset: 0x13292, size: 0x8, addend: 0x0, symName: __ZNSt3__16vectorI6ShaderNS_9allocatorIS1_EEE7__allocB7v160006Ev, symObjAddr: 0xF64, symBinAddr: 0x100008430, symSize: 0x28 }
  - { offsetInCU: 0x7F71, offset: 0x132B7, size: 0x8, addend: 0x0, symName: __ZNKSt3__16vectorI6ShaderNS_9allocatorIS1_EEE8capacityB7v160006Ev, symObjAddr: 0xF8C, symBinAddr: 0x100008458, symSize: 0x40 }
  - { offsetInCU: 0x7F96, offset: 0x132DC, size: 0x8, addend: 0x0, symName: __ZNKSt3__16vectorI6ShaderNS_9allocatorIS1_EEE31__annotate_contiguous_containerB7v160006EPKvS6_S6_S6_, symObjAddr: 0xFCC, symBinAddr: 0x100008498, symSize: 0x20 }
  - { offsetInCU: 0x7FEB, offset: 0x13331, size: 0x8, addend: 0x0, symName: __ZNKSt3__16vectorI6ShaderNS_9allocatorIS1_EEE4dataB7v160006Ev, symObjAddr: 0xFEC, symBinAddr: 0x1000084B8, symSize: 0x28 }
  - { offsetInCU: 0x8010, offset: 0x13356, size: 0x8, addend: 0x0, symName: __ZNKSt3__16vectorI6ShaderNS_9allocatorIS1_EEE4sizeB7v160006Ev, symObjAddr: 0x1014, symBinAddr: 0x1000084E0, symSize: 0x28 }
  - { offsetInCU: 0x8035, offset: 0x1337B, size: 0x8, addend: 0x0, symName: __ZNSt3__16vectorI6ShaderNS_9allocatorIS1_EEE22__base_destruct_at_endB7v160006EPS1_, symObjAddr: 0x1050, symBinAddr: 0x10000851C, symSize: 0xA0 }
  - { offsetInCU: 0x8078, offset: 0x133BE, size: 0x8, addend: 0x0, symName: __ZNSt3__116allocator_traitsINS_9allocatorI6ShaderEEE7destroyB7v160006IS2_vEEvRS3_PT_, symObjAddr: 0x10F0, symBinAddr: 0x1000085BC, symSize: 0x2C }
  - { offsetInCU: 0x80B5, offset: 0x133FB, size: 0x8, addend: 0x0, symName: __ZNSt3__19allocatorI6ShaderE7destroyB7v160006EPS1_, symObjAddr: 0x111C, symBinAddr: 0x1000085E8, symSize: 0x28 }
  - { offsetInCU: 0x80E8, offset: 0x1342E, size: 0x8, addend: 0x0, symName: __ZNSt3__19allocatorI6ShaderE10deallocateB7v160006EPS1_m, symObjAddr: 0x1144, symBinAddr: 0x100008610, symSize: 0x70 }
  - { offsetInCU: 0x8129, offset: 0x1346F, size: 0x8, addend: 0x0, symName: __ZNSt3__117__compressed_pairIP6ShaderNS_9allocatorIS1_EEE6secondB7v160006Ev, symObjAddr: 0x11B4, symBinAddr: 0x100008680, symSize: 0x24 }
  - { offsetInCU: 0x814E, offset: 0x13494, size: 0x8, addend: 0x0, symName: __ZNSt3__122__compressed_pair_elemINS_9allocatorI6ShaderEELi1ELb1EE5__getB7v160006Ev, symObjAddr: 0x11D8, symBinAddr: 0x1000086A4, symSize: 0x14 }
  - { offsetInCU: 0x8173, offset: 0x134B9, size: 0x8, addend: 0x0, symName: __ZNKSt3__16vectorI6ShaderNS_9allocatorIS1_EEE9__end_capB7v160006Ev, symObjAddr: 0x11EC, symBinAddr: 0x1000086B8, symSize: 0x28 }
  - { offsetInCU: 0x8198, offset: 0x134DE, size: 0x8, addend: 0x0, symName: __ZNKSt3__117__compressed_pairIP6ShaderNS_9allocatorIS1_EEE5firstB7v160006Ev, symObjAddr: 0x1214, symBinAddr: 0x1000086E0, symSize: 0x24 }
  - { offsetInCU: 0x81BD, offset: 0x13503, size: 0x8, addend: 0x0, symName: __ZNKSt3__122__compressed_pair_elemIP6ShaderLi0ELb0EE5__getB7v160006Ev, symObjAddr: 0x1238, symBinAddr: 0x100008704, symSize: 0x14 }
  - { offsetInCU: 0x81E2, offset: 0x13528, size: 0x8, addend: 0x0, symName: __ZNSt3__16vectorIP4MeshNS_9allocatorIS2_EEE9__end_capB7v160006Ev, symObjAddr: 0x124C, symBinAddr: 0x100008718, symSize: 0x28 }
  - { offsetInCU: 0x8207, offset: 0x1354D, size: 0x8, addend: 0x0, symName: __ZNSt3__16vectorIP4MeshNS_9allocatorIS2_EEE22__construct_one_at_endB7v160006IJRKS2_EEEvDpOT_, symObjAddr: 0x1274, symBinAddr: 0x100008740, symSize: 0x98 }
  - { offsetInCU: 0x8254, offset: 0x1359A, size: 0x8, addend: 0x0, symName: __ZNSt3__16vectorIP4MeshNS_9allocatorIS2_EEE21__push_back_slow_pathIRKS2_EEvOT_, symObjAddr: 0x130C, symBinAddr: 0x1000087D8, symSize: 0xE0 }
  - { offsetInCU: 0x82B2, offset: 0x135F8, size: 0x8, addend: 0x0, symName: __ZNSt3__117__compressed_pairIPP4MeshNS_9allocatorIS2_EEE5firstB7v160006Ev, symObjAddr: 0x13EC, symBinAddr: 0x1000088B8, symSize: 0x24 }
  - { offsetInCU: 0x82D7, offset: 0x1361D, size: 0x8, addend: 0x0, symName: __ZNSt3__122__compressed_pair_elemIPP4MeshLi0ELb0EE5__getB7v160006Ev, symObjAddr: 0x1410, symBinAddr: 0x1000088DC, symSize: 0x14 }
  - { offsetInCU: 0x8314, offset: 0x1365A, size: 0x8, addend: 0x0, symName: __ZNSt3__16vectorIP4MeshNS_9allocatorIS2_EEE21_ConstructTransactionC1B7v160006ERS5_m, symObjAddr: 0x1424, symBinAddr: 0x1000088F0, symSize: 0x3C }
  - { offsetInCU: 0x835C, offset: 0x136A2, size: 0x8, addend: 0x0, symName: __ZNSt3__116allocator_traitsINS_9allocatorIP4MeshEEE9constructB7v160006IS3_JRKS3_EvEEvRS4_PT_DpOT0_, symObjAddr: 0x1460, symBinAddr: 0x10000892C, symSize: 0x34 }
  - { offsetInCU: 0x83B2, offset: 0x136F8, size: 0x8, addend: 0x0, symName: __ZNSt3__16vectorIP4MeshNS_9allocatorIS2_EEE21_ConstructTransactionD1B7v160006Ev, symObjAddr: 0x1494, symBinAddr: 0x100008960, symSize: 0x2C }
  - { offsetInCU: 0x83DC, offset: 0x13722, size: 0x8, addend: 0x0, symName: __ZNSt3__16vectorIP4MeshNS_9allocatorIS2_EEE21_ConstructTransactionC2B7v160006ERS5_m, symObjAddr: 0x14CC, symBinAddr: 0x10000898C, symSize: 0x44 }
  - { offsetInCU: 0x8423, offset: 0x13769, size: 0x8, addend: 0x0, symName: __ZNSt3__19allocatorIP4MeshE9constructB7v160006IS2_JRKS2_EEEvPT_DpOT0_, symObjAddr: 0x1510, symBinAddr: 0x1000089D0, symSize: 0x28 }
  - { offsetInCU: 0x8478, offset: 0x137BE, size: 0x8, addend: 0x0, symName: __ZNSt3__16vectorIP4MeshNS_9allocatorIS2_EEE21_ConstructTransactionD2B7v160006Ev, symObjAddr: 0x1538, symBinAddr: 0x1000089F8, symSize: 0x20 }
  - { offsetInCU: 0x84A0, offset: 0x137E6, size: 0x8, addend: 0x0, symName: __ZNKSt3__16vectorIP4MeshNS_9allocatorIS2_EEE11__recommendB7v160006Em, symObjAddr: 0x1558, symBinAddr: 0x100008A18, symSize: 0xB4 }
  - { offsetInCU: 0x84F5, offset: 0x1383B, size: 0x8, addend: 0x0, symName: __ZNSt3__114__split_bufferIP4MeshRNS_9allocatorIS2_EEEC1EmmS5_, symObjAddr: 0x160C, symBinAddr: 0x100008ACC, symSize: 0x44 }
  - { offsetInCU: 0x854A, offset: 0x13890, size: 0x8, addend: 0x0, symName: __ZNSt3__114__split_bufferIP4MeshRNS_9allocatorIS2_EEED1Ev, symObjAddr: 0x1768, symBinAddr: 0x100008C28, symSize: 0x2C }
  - { offsetInCU: 0x8574, offset: 0x138BA, size: 0x8, addend: 0x0, symName: __ZNKSt3__16vectorIP4MeshNS_9allocatorIS2_EEE8max_sizeEv, symObjAddr: 0x1794, symBinAddr: 0x100008C54, symSize: 0x74 }
  - { offsetInCU: 0x859C, offset: 0x138E2, size: 0x8, addend: 0x0, symName: __ZNKSt3__16vectorIP4MeshNS_9allocatorIS2_EEE20__throw_length_errorB7v160006Ev, symObjAddr: 0x1808, symBinAddr: 0x100008CC8, symSize: 0x1C }
  - { offsetInCU: 0x85CB, offset: 0x13911, size: 0x8, addend: 0x0, symName: __ZNSt3__116allocator_traitsINS_9allocatorIP4MeshEEE8max_sizeB7v160006IS4_vEEmRKS4_, symObjAddr: 0x187C, symBinAddr: 0x100008D3C, symSize: 0x24 }
  - { offsetInCU: 0x85F9, offset: 0x1393F, size: 0x8, addend: 0x0, symName: __ZNKSt3__16vectorIP4MeshNS_9allocatorIS2_EEE7__allocB7v160006Ev, symObjAddr: 0x18A0, symBinAddr: 0x100008D60, symSize: 0x28 }
  - { offsetInCU: 0x861E, offset: 0x13964, size: 0x8, addend: 0x0, symName: __ZNSt3__114numeric_limitsIlE3maxB7v160006Ev, symObjAddr: 0x18C8, symBinAddr: 0x100008D88, symSize: 0x14 }
  - { offsetInCU: 0x8646, offset: 0x1398C, size: 0x8, addend: 0x0, symName: __ZNKSt3__16__lessImmEclB7v160006ERKmS3_, symObjAddr: 0x1930, symBinAddr: 0x100008DF0, symSize: 0x34 }
  - { offsetInCU: 0x8687, offset: 0x139CD, size: 0x8, addend: 0x0, symName: __ZNKSt3__19allocatorIP4MeshE8max_sizeB7v160006Ev, symObjAddr: 0x1964, symBinAddr: 0x100008E24, symSize: 0x14 }
  - { offsetInCU: 0x86AC, offset: 0x139F2, size: 0x8, addend: 0x0, symName: __ZNKSt3__117__compressed_pairIPP4MeshNS_9allocatorIS2_EEE6secondB7v160006Ev, symObjAddr: 0x1978, symBinAddr: 0x100008E38, symSize: 0x24 }
  - { offsetInCU: 0x86D1, offset: 0x13A17, size: 0x8, addend: 0x0, symName: __ZNKSt3__122__compressed_pair_elemINS_9allocatorIP4MeshEELi1ELb1EE5__getB7v160006Ev, symObjAddr: 0x199C, symBinAddr: 0x100008E5C, symSize: 0x14 }
  - { offsetInCU: 0x86F6, offset: 0x13A3C, size: 0x8, addend: 0x0, symName: __ZNSt3__123__libcpp_numeric_limitsIlLb1EE3maxB7v160006Ev, symObjAddr: 0x19B0, symBinAddr: 0x100008E70, symSize: 0x8 }
  - { offsetInCU: 0x870A, offset: 0x13A50, size: 0x8, addend: 0x0, symName: __ZNSt3__114__split_bufferIP4MeshRNS_9allocatorIS2_EEEC2EmmS5_, symObjAddr: 0x1AF0, symBinAddr: 0x100008ECC, symSize: 0xD4 }
  - { offsetInCU: 0x877C, offset: 0x13AC2, size: 0x8, addend: 0x0, symName: __ZNSt3__117__compressed_pairIPP4MeshRNS_9allocatorIS2_EEEC1B7v160006IDnS6_EEOT_OT0_, symObjAddr: 0x1BC4, symBinAddr: 0x100008FA0, symSize: 0x3C }
  - { offsetInCU: 0x87D4, offset: 0x13B1A, size: 0x8, addend: 0x0, symName: __ZNSt3__114__split_bufferIP4MeshRNS_9allocatorIS2_EEE7__allocB7v160006Ev, symObjAddr: 0x1C40, symBinAddr: 0x10000901C, symSize: 0x28 }
  - { offsetInCU: 0x87F9, offset: 0x13B3F, size: 0x8, addend: 0x0, symName: __ZNSt3__114__split_bufferIP4MeshRNS_9allocatorIS2_EEE9__end_capB7v160006Ev, symObjAddr: 0x1C68, symBinAddr: 0x100009044, symSize: 0x28 }
  - { offsetInCU: 0x881D, offset: 0x13B63, size: 0x8, addend: 0x0, symName: __ZNSt3__117__compressed_pairIPP4MeshRNS_9allocatorIS2_EEEC2B7v160006IDnS6_EEOT_OT0_, symObjAddr: 0x1C90, symBinAddr: 0x10000906C, symSize: 0x48 }
  - { offsetInCU: 0x8875, offset: 0x13BBB, size: 0x8, addend: 0x0, symName: __ZNSt3__122__compressed_pair_elemIRNS_9allocatorIP4MeshEELi1ELb0EEC2B7v160006IS5_vEEOT_, symObjAddr: 0x1CD8, symBinAddr: 0x1000090B4, symSize: 0x20 }
  - { offsetInCU: 0x88B6, offset: 0x13BFC, size: 0x8, addend: 0x0, symName: __ZNSt3__19allocatorIP4MeshE8allocateB7v160006Em, symObjAddr: 0x1CF8, symBinAddr: 0x1000090D4, symSize: 0x84 }
  - { offsetInCU: 0x88E9, offset: 0x13C2F, size: 0x8, addend: 0x0, symName: __ZNSt3__117__compressed_pairIPP4MeshRNS_9allocatorIS2_EEE6secondB7v160006Ev, symObjAddr: 0x1DFC, symBinAddr: 0x100009158, symSize: 0x28 }
  - { offsetInCU: 0x890E, offset: 0x13C54, size: 0x8, addend: 0x0, symName: __ZNSt3__122__compressed_pair_elemIRNS_9allocatorIP4MeshEELi1ELb0EE5__getB7v160006Ev, symObjAddr: 0x1E24, symBinAddr: 0x100009180, symSize: 0x18 }
  - { offsetInCU: 0x8933, offset: 0x13C79, size: 0x8, addend: 0x0, symName: __ZNSt3__117__compressed_pairIPP4MeshRNS_9allocatorIS2_EEE5firstB7v160006Ev, symObjAddr: 0x1E3C, symBinAddr: 0x100009198, symSize: 0x24 }
  - { offsetInCU: 0x8957, offset: 0x13C9D, size: 0x8, addend: 0x0, symName: __ZNSt3__116reverse_iteratorIPP4MeshEC1B7v160006ES3_, symObjAddr: 0x1F48, symBinAddr: 0x1000092A4, symSize: 0x34 }
  - { offsetInCU: 0x898F, offset: 0x13CD5, size: 0x8, addend: 0x0, symName: __ZNKSt3__116reverse_iteratorIPP4MeshE4baseB7v160006Ev, symObjAddr: 0x1F7C, symBinAddr: 0x1000092D8, symSize: 0x18 }
  - { offsetInCU: 0x89B4, offset: 0x13CFA, size: 0x8, addend: 0x0, symName: __ZNKSt3__16vectorIP4MeshNS_9allocatorIS2_EEE14__annotate_newB7v160006Em, symObjAddr: 0x1FD0, symBinAddr: 0x10000932C, symSize: 0xAC }
  - { offsetInCU: 0x89E8, offset: 0x13D2E, size: 0x8, addend: 0x0, symName: __ZNKSt3__116reverse_iteratorIPP4MeshEdeB7v160006Ev, symObjAddr: 0x2124, symBinAddr: 0x100009480, symSize: 0x28 }
  - { offsetInCU: 0x8A1B, offset: 0x13D61, size: 0x8, addend: 0x0, symName: __ZNSt3__116reverse_iteratorIPP4MeshEppB7v160006Ev, symObjAddr: 0x214C, symBinAddr: 0x1000094A8, symSize: 0x20 }
  - { offsetInCU: 0x8A45, offset: 0x13D8B, size: 0x8, addend: 0x0, symName: __ZNSt3__119__to_address_helperINS_16reverse_iteratorIPP4MeshEEvE6__callB7v160006ERKS5_, symObjAddr: 0x21E4, symBinAddr: 0x100009540, symSize: 0x4C }
  - { offsetInCU: 0x8A68, offset: 0x13DAE, size: 0x8, addend: 0x0, symName: __ZNKSt3__116reverse_iteratorIPP4MeshEptB7v160006Ev, symObjAddr: 0x2230, symBinAddr: 0x10000958C, symSize: 0x24 }
  - { offsetInCU: 0x8AB1, offset: 0x13DF7, size: 0x8, addend: 0x0, symName: __ZNKSt3__111__move_loopINS_17_ClassicAlgPolicyEEclB7v160006INS_16reverse_iteratorIPP4MeshEES8_S8_EENS_4pairIT_T1_EESA_T0_SB_, symObjAddr: 0x24E4, symBinAddr: 0x100009840, symSize: 0xA0 }
  - { offsetInCU: 0x8B21, offset: 0x13E67, size: 0x8, addend: 0x0, symName: __ZNSt3__18_IterOpsINS_17_ClassicAlgPolicyEE11__iter_moveB7v160006IRNS_16reverse_iteratorIPP4MeshEEEENS_9enable_ifIXsr12is_referenceIDTdeclsr3stdE7declvalIRT_EEEEE5valueEDTclsr3stdE4movedeclsr3stdE7declvalISC_EEEEE4typeEOSB_, symObjAddr: 0x26E4, symBinAddr: 0x100009A40, symSize: 0x28 }
  - { offsetInCU: 0x8B4D, offset: 0x13E93, size: 0x8, addend: 0x0, symName: __ZNSt3__18_IterOpsINS_17_ClassicAlgPolicyEE25__validate_iter_referenceB7v160006IRNS_16reverse_iteratorIPP4MeshEEEEvv, symObjAddr: 0x270C, symBinAddr: 0x100009A68, symSize: 0x4 }
  - { offsetInCU: 0x8B6B, offset: 0x13EB1, size: 0x8, addend: 0x0, symName: __ZNSt3__118__unwrap_iter_implINS_16reverse_iteratorIPP4MeshEELb0EE8__unwrapB7v160006ES5_, symObjAddr: 0x2710, symBinAddr: 0x100009A6C, symSize: 0x24 }
  - { offsetInCU: 0x8B8D, offset: 0x13ED3, size: 0x8, addend: 0x0, symName: __ZNSt3__14pairINS_16reverse_iteratorIPP4MeshEES5_EC1B7v160006ERKS5_S8_, symObjAddr: 0x2734, symBinAddr: 0x100009A90, symSize: 0x3C }
  - { offsetInCU: 0x8BD3, offset: 0x13F19, size: 0x8, addend: 0x0, symName: __ZNSt3__14pairINS_16reverse_iteratorIPP4MeshEES5_EC2B7v160006ERKS5_S8_, symObjAddr: 0x2770, symBinAddr: 0x100009ACC, symSize: 0x34 }
  - { offsetInCU: 0x8C18, offset: 0x13F5E, size: 0x8, addend: 0x0, symName: __ZNSt3__118__unwrap_iter_implINS_16reverse_iteratorIPP4MeshEELb0EE8__rewrapB7v160006ES5_S5_, symObjAddr: 0x27A4, symBinAddr: 0x100009B00, symSize: 0x2C }
  - { offsetInCU: 0x8C46, offset: 0x13F8C, size: 0x8, addend: 0x0, symName: __ZNSt3__116reverse_iteratorIPP4MeshEC2B7v160006ES3_, symObjAddr: 0x27D0, symBinAddr: 0x100009B2C, symSize: 0x28 }
  - { offsetInCU: 0x8C7D, offset: 0x13FC3, size: 0x8, addend: 0x0, symName: __ZNSt3__114__split_bufferIP4MeshRNS_9allocatorIS2_EEED2Ev, symObjAddr: 0x27F8, symBinAddr: 0x100009B54, symSize: 0x80 }
  - { offsetInCU: 0x8CA8, offset: 0x13FEE, size: 0x8, addend: 0x0, symName: __ZNSt3__114__split_bufferIP4MeshRNS_9allocatorIS2_EEE5clearB7v160006Ev, symObjAddr: 0x2878, symBinAddr: 0x100009BD4, symSize: 0x28 }
  - { offsetInCU: 0x8CCD, offset: 0x14013, size: 0x8, addend: 0x0, symName: __ZNKSt3__114__split_bufferIP4MeshRNS_9allocatorIS2_EEE8capacityB7v160006Ev, symObjAddr: 0x28A0, symBinAddr: 0x100009BFC, symSize: 0x40 }
  - { offsetInCU: 0x8CF2, offset: 0x14038, size: 0x8, addend: 0x0, symName: __ZNSt3__114__split_bufferIP4MeshRNS_9allocatorIS2_EEE17__destruct_at_endB7v160006EPS2_, symObjAddr: 0x28E0, symBinAddr: 0x100009C3C, symSize: 0x2C }
  - { offsetInCU: 0x8D24, offset: 0x1406A, size: 0x8, addend: 0x0, symName: __ZNSt3__114__split_bufferIP4MeshRNS_9allocatorIS2_EEE17__destruct_at_endB7v160006EPS2_NS_17integral_constantIbLb0EEE, symObjAddr: 0x290C, symBinAddr: 0x100009C68, symSize: 0x94 }
  - { offsetInCU: 0x8D65, offset: 0x140AB, size: 0x8, addend: 0x0, symName: __ZNKSt3__114__split_bufferIP4MeshRNS_9allocatorIS2_EEE9__end_capB7v160006Ev, symObjAddr: 0x29A0, symBinAddr: 0x100009CFC, symSize: 0x28 }
  - { offsetInCU: 0x8D8A, offset: 0x140D0, size: 0x8, addend: 0x0, symName: __ZNKSt3__117__compressed_pairIPP4MeshRNS_9allocatorIS2_EEE5firstB7v160006Ev, symObjAddr: 0x29C8, symBinAddr: 0x100009D24, symSize: 0x24 }
  - { offsetInCU: 0x8DAF, offset: 0x140F5, size: 0x8, addend: 0x0, symName: __ZNSt3__16vectorI6ShaderNS_9allocatorIS1_EEE9__end_capB7v160006Ev, symObjAddr: 0x29EC, symBinAddr: 0x100009D48, symSize: 0x28 }
  - { offsetInCU: 0x8DD4, offset: 0x1411A, size: 0x8, addend: 0x0, symName: __ZNSt3__16vectorI6ShaderNS_9allocatorIS1_EEE22__construct_one_at_endB7v160006IJRKS1_EEEvDpOT_, symObjAddr: 0x2A14, symBinAddr: 0x100009D70, symSize: 0x98 }
  - { offsetInCU: 0x8E21, offset: 0x14167, size: 0x8, addend: 0x0, symName: __ZNSt3__16vectorI6ShaderNS_9allocatorIS1_EEE21__push_back_slow_pathIRKS1_EEvOT_, symObjAddr: 0x2AAC, symBinAddr: 0x100009E08, symSize: 0xE0 }
  - { offsetInCU: 0x8E7F, offset: 0x141C5, size: 0x8, addend: 0x0, symName: __ZNSt3__117__compressed_pairIP6ShaderNS_9allocatorIS1_EEE5firstB7v160006Ev, symObjAddr: 0x2B8C, symBinAddr: 0x100009EE8, symSize: 0x24 }
  - { offsetInCU: 0x8EA4, offset: 0x141EA, size: 0x8, addend: 0x0, symName: __ZNSt3__122__compressed_pair_elemIP6ShaderLi0ELb0EE5__getB7v160006Ev, symObjAddr: 0x2BB0, symBinAddr: 0x100009F0C, symSize: 0x14 }
  - { offsetInCU: 0x8EE1, offset: 0x14227, size: 0x8, addend: 0x0, symName: __ZNSt3__16vectorI6ShaderNS_9allocatorIS1_EEE21_ConstructTransactionC1B7v160006ERS4_m, symObjAddr: 0x2BC4, symBinAddr: 0x100009F20, symSize: 0x3C }
  - { offsetInCU: 0x8F29, offset: 0x1426F, size: 0x8, addend: 0x0, symName: __ZNSt3__116allocator_traitsINS_9allocatorI6ShaderEEE9constructB7v160006IS2_JRKS2_EvEEvRS3_PT_DpOT0_, symObjAddr: 0x2C00, symBinAddr: 0x100009F5C, symSize: 0x34 }
  - { offsetInCU: 0x8F7F, offset: 0x142C5, size: 0x8, addend: 0x0, symName: __ZNSt3__16vectorI6ShaderNS_9allocatorIS1_EEE21_ConstructTransactionD1B7v160006Ev, symObjAddr: 0x2C34, symBinAddr: 0x100009F90, symSize: 0x2C }
  - { offsetInCU: 0x8FA9, offset: 0x142EF, size: 0x8, addend: 0x0, symName: __ZNSt3__16vectorI6ShaderNS_9allocatorIS1_EEE21_ConstructTransactionC2B7v160006ERS4_m, symObjAddr: 0x2C60, symBinAddr: 0x100009FBC, symSize: 0x44 }
  - { offsetInCU: 0x8FF0, offset: 0x14336, size: 0x8, addend: 0x0, symName: __ZNSt3__19allocatorI6ShaderE9constructB7v160006IS1_JRKS1_EEEvPT_DpOT0_, symObjAddr: 0x2CA4, symBinAddr: 0x10000A000, symSize: 0x28 }
  - { offsetInCU: 0x9045, offset: 0x1438B, size: 0x8, addend: 0x0, symName: __ZNSt3__16vectorI6ShaderNS_9allocatorIS1_EEE21_ConstructTransactionD2B7v160006Ev, symObjAddr: 0x2CCC, symBinAddr: 0x10000A028, symSize: 0x20 }
  - { offsetInCU: 0x906D, offset: 0x143B3, size: 0x8, addend: 0x0, symName: __ZNKSt3__16vectorI6ShaderNS_9allocatorIS1_EEE11__recommendB7v160006Em, symObjAddr: 0x2CEC, symBinAddr: 0x10000A048, symSize: 0xB4 }
  - { offsetInCU: 0x90C2, offset: 0x14408, size: 0x8, addend: 0x0, symName: __ZNSt3__114__split_bufferI6ShaderRNS_9allocatorIS1_EEEC1EmmS4_, symObjAddr: 0x2DA0, symBinAddr: 0x10000A0FC, symSize: 0x44 }
  - { offsetInCU: 0x9117, offset: 0x1445D, size: 0x8, addend: 0x0, symName: __ZNSt3__114__split_bufferI6ShaderRNS_9allocatorIS1_EEED1Ev, symObjAddr: 0x2EFC, symBinAddr: 0x10000A258, symSize: 0x2C }
  - { offsetInCU: 0x9141, offset: 0x14487, size: 0x8, addend: 0x0, symName: __ZNKSt3__16vectorI6ShaderNS_9allocatorIS1_EEE8max_sizeEv, symObjAddr: 0x2F28, symBinAddr: 0x10000A284, symSize: 0x74 }
  - { offsetInCU: 0x9169, offset: 0x144AF, size: 0x8, addend: 0x0, symName: __ZNKSt3__16vectorI6ShaderNS_9allocatorIS1_EEE20__throw_length_errorB7v160006Ev, symObjAddr: 0x2F9C, symBinAddr: 0x10000A2F8, symSize: 0x1C }
  - { offsetInCU: 0x9198, offset: 0x144DE, size: 0x8, addend: 0x0, symName: __ZNSt3__116allocator_traitsINS_9allocatorI6ShaderEEE8max_sizeB7v160006IS3_vEEmRKS3_, symObjAddr: 0x2FB8, symBinAddr: 0x10000A314, symSize: 0x24 }
  - { offsetInCU: 0x91C6, offset: 0x1450C, size: 0x8, addend: 0x0, symName: __ZNKSt3__16vectorI6ShaderNS_9allocatorIS1_EEE7__allocB7v160006Ev, symObjAddr: 0x2FDC, symBinAddr: 0x10000A338, symSize: 0x28 }
  - { offsetInCU: 0x91EB, offset: 0x14531, size: 0x8, addend: 0x0, symName: __ZNKSt3__19allocatorI6ShaderE8max_sizeB7v160006Ev, symObjAddr: 0x3004, symBinAddr: 0x10000A360, symSize: 0x14 }
  - { offsetInCU: 0x9210, offset: 0x14556, size: 0x8, addend: 0x0, symName: __ZNKSt3__117__compressed_pairIP6ShaderNS_9allocatorIS1_EEE6secondB7v160006Ev, symObjAddr: 0x3018, symBinAddr: 0x10000A374, symSize: 0x24 }
  - { offsetInCU: 0x9235, offset: 0x1457B, size: 0x8, addend: 0x0, symName: __ZNKSt3__122__compressed_pair_elemINS_9allocatorI6ShaderEELi1ELb1EE5__getB7v160006Ev, symObjAddr: 0x303C, symBinAddr: 0x10000A398, symSize: 0x14 }
  - { offsetInCU: 0x925A, offset: 0x145A0, size: 0x8, addend: 0x0, symName: __ZNSt3__114__split_bufferI6ShaderRNS_9allocatorIS1_EEEC2EmmS4_, symObjAddr: 0x3050, symBinAddr: 0x10000A3AC, symSize: 0xD4 }
  - { offsetInCU: 0x92CC, offset: 0x14612, size: 0x8, addend: 0x0, symName: __ZNSt3__117__compressed_pairIP6ShaderRNS_9allocatorIS1_EEEC1B7v160006IDnS5_EEOT_OT0_, symObjAddr: 0x3124, symBinAddr: 0x10000A480, symSize: 0x3C }
  - { offsetInCU: 0x9324, offset: 0x1466A, size: 0x8, addend: 0x0, symName: __ZNSt3__114__split_bufferI6ShaderRNS_9allocatorIS1_EEE7__allocB7v160006Ev, symObjAddr: 0x31A0, symBinAddr: 0x10000A4FC, symSize: 0x28 }
  - { offsetInCU: 0x9349, offset: 0x1468F, size: 0x8, addend: 0x0, symName: __ZNSt3__114__split_bufferI6ShaderRNS_9allocatorIS1_EEE9__end_capB7v160006Ev, symObjAddr: 0x31C8, symBinAddr: 0x10000A524, symSize: 0x28 }
  - { offsetInCU: 0x936D, offset: 0x146B3, size: 0x8, addend: 0x0, symName: __ZNSt3__117__compressed_pairIP6ShaderRNS_9allocatorIS1_EEEC2B7v160006IDnS5_EEOT_OT0_, symObjAddr: 0x31F0, symBinAddr: 0x10000A54C, symSize: 0x48 }
  - { offsetInCU: 0x93C5, offset: 0x1470B, size: 0x8, addend: 0x0, symName: __ZNSt3__122__compressed_pair_elemIRNS_9allocatorI6ShaderEELi1ELb0EEC2B7v160006IS4_vEEOT_, symObjAddr: 0x3238, symBinAddr: 0x10000A594, symSize: 0x20 }
  - { offsetInCU: 0x9406, offset: 0x1474C, size: 0x8, addend: 0x0, symName: __ZNSt3__19allocatorI6ShaderE8allocateB7v160006Em, symObjAddr: 0x3258, symBinAddr: 0x10000A5B4, symSize: 0x84 }
  - { offsetInCU: 0x9439, offset: 0x1477F, size: 0x8, addend: 0x0, symName: __ZNSt3__117__compressed_pairIP6ShaderRNS_9allocatorIS1_EEE6secondB7v160006Ev, symObjAddr: 0x32DC, symBinAddr: 0x10000A638, symSize: 0x28 }
  - { offsetInCU: 0x945E, offset: 0x147A4, size: 0x8, addend: 0x0, symName: __ZNSt3__122__compressed_pair_elemIRNS_9allocatorI6ShaderEELi1ELb0EE5__getB7v160006Ev, symObjAddr: 0x3304, symBinAddr: 0x10000A660, symSize: 0x18 }
  - { offsetInCU: 0x9483, offset: 0x147C9, size: 0x8, addend: 0x0, symName: __ZNSt3__117__compressed_pairIP6ShaderRNS_9allocatorIS1_EEE5firstB7v160006Ev, symObjAddr: 0x331C, symBinAddr: 0x10000A678, symSize: 0x24 }
  - { offsetInCU: 0x94A7, offset: 0x147ED, size: 0x8, addend: 0x0, symName: __ZNSt3__116reverse_iteratorIP6ShaderEC1B7v160006ES2_, symObjAddr: 0x3474, symBinAddr: 0x10000A7D0, symSize: 0x34 }
  - { offsetInCU: 0x94DF, offset: 0x14825, size: 0x8, addend: 0x0, symName: __ZNKSt3__116reverse_iteratorIP6ShaderE4baseB7v160006Ev, symObjAddr: 0x34A8, symBinAddr: 0x10000A804, symSize: 0x18 }
  - { offsetInCU: 0x9504, offset: 0x1484A, size: 0x8, addend: 0x0, symName: __ZNKSt3__16vectorI6ShaderNS_9allocatorIS1_EEE14__annotate_newB7v160006Em, symObjAddr: 0x34FC, symBinAddr: 0x10000A858, symSize: 0xAC }
  - { offsetInCU: 0x9537, offset: 0x1487D, size: 0x8, addend: 0x0, symName: __ZNSt3__129_AllocatorDestroyRangeReverseINS_9allocatorI6ShaderEENS_16reverse_iteratorIPS2_EEEC1B7v160006ERS3_RS6_S9_, symObjAddr: 0x3604, symBinAddr: 0x10000A960, symSize: 0x44 }
  - { offsetInCU: 0x958E, offset: 0x148D4, size: 0x8, addend: 0x0, symName: __ZNKSt3__116reverse_iteratorIP6ShaderEdeB7v160006Ev, symObjAddr: 0x36B4, symBinAddr: 0x10000AA10, symSize: 0x28 }
  - { offsetInCU: 0x95C1, offset: 0x14907, size: 0x8, addend: 0x0, symName: __ZNSt3__116reverse_iteratorIP6ShaderEppB7v160006Ev, symObjAddr: 0x36DC, symBinAddr: 0x10000AA38, symSize: 0x20 }
  - { offsetInCU: 0x95E6, offset: 0x1492C, size: 0x8, addend: 0x0, symName: __ZNSt3__128__exception_guard_exceptionsINS_29_AllocatorDestroyRangeReverseINS_9allocatorI6ShaderEENS_16reverse_iteratorIPS3_EEEEE10__completeB7v160006Ev, symObjAddr: 0x36FC, symBinAddr: 0x10000AA58, symSize: 0x1C }
  - { offsetInCU: 0x960A, offset: 0x14950, size: 0x8, addend: 0x0, symName: __ZNSt3__128__exception_guard_exceptionsINS_29_AllocatorDestroyRangeReverseINS_9allocatorI6ShaderEENS_16reverse_iteratorIPS3_EEEEED1B7v160006Ev, symObjAddr: 0x3718, symBinAddr: 0x10000AA74, symSize: 0x2C }
  - { offsetInCU: 0x9633, offset: 0x14979, size: 0x8, addend: 0x0, symName: __ZNSt3__128__exception_guard_exceptionsINS_29_AllocatorDestroyRangeReverseINS_9allocatorI6ShaderEENS_16reverse_iteratorIPS3_EEEEEC1B7v160006ES8_, symObjAddr: 0x3744, symBinAddr: 0x10000AAA0, symSize: 0x34 }
  - { offsetInCU: 0x966C, offset: 0x149B2, size: 0x8, addend: 0x0, symName: __ZNSt3__128__exception_guard_exceptionsINS_29_AllocatorDestroyRangeReverseINS_9allocatorI6ShaderEENS_16reverse_iteratorIPS3_EEEEEC2B7v160006ES8_, symObjAddr: 0x3778, symBinAddr: 0x10000AAD4, symSize: 0x30 }
  - { offsetInCU: 0x96A4, offset: 0x149EA, size: 0x8, addend: 0x0, symName: __ZNSt3__129_AllocatorDestroyRangeReverseINS_9allocatorI6ShaderEENS_16reverse_iteratorIPS2_EEEC2B7v160006ERS3_RS6_S9_, symObjAddr: 0x37A8, symBinAddr: 0x10000AB04, symSize: 0x38 }
  - { offsetInCU: 0x96FF, offset: 0x14A45, size: 0x8, addend: 0x0, symName: __ZNSt3__119__to_address_helperINS_16reverse_iteratorIP6ShaderEEvE6__callB7v160006ERKS4_, symObjAddr: 0x37E0, symBinAddr: 0x10000AB3C, symSize: 0x4C }
  - { offsetInCU: 0x9722, offset: 0x14A68, size: 0x8, addend: 0x0, symName: __ZNKSt3__116reverse_iteratorIP6ShaderEptB7v160006Ev, symObjAddr: 0x382C, symBinAddr: 0x10000AB88, symSize: 0x24 }
  - { offsetInCU: 0x9746, offset: 0x14A8C, size: 0x8, addend: 0x0, symName: __ZNSt3__128__exception_guard_exceptionsINS_29_AllocatorDestroyRangeReverseINS_9allocatorI6ShaderEENS_16reverse_iteratorIPS3_EEEEED2B7v160006Ev, symObjAddr: 0x3850, symBinAddr: 0x10000ABAC, symSize: 0x48 }
  - { offsetInCU: 0x9770, offset: 0x14AB6, size: 0x8, addend: 0x0, symName: __ZNKSt3__129_AllocatorDestroyRangeReverseINS_9allocatorI6ShaderEENS_16reverse_iteratorIPS2_EEEclB7v160006Ev, symObjAddr: 0x3898, symBinAddr: 0x10000ABF4, symSize: 0xB4 }
  - { offsetInCU: 0x9795, offset: 0x14ADB, size: 0x8, addend: 0x0, symName: __ZNSt3__116reverse_iteratorINS0_IP6ShaderEEEC1B7v160006ES3_, symObjAddr: 0x39BC, symBinAddr: 0x10000AD18, symSize: 0x3C }
  - { offsetInCU: 0x97CD, offset: 0x14B13, size: 0x8, addend: 0x0, symName: __ZNSt3__116reverse_iteratorINS0_IP6ShaderEEEppB7v160006Ev, symObjAddr: 0x3A7C, symBinAddr: 0x10000ADD8, symSize: 0x30 }
  - { offsetInCU: 0x97F2, offset: 0x14B38, size: 0x8, addend: 0x0, symName: __ZNKSt3__116reverse_iteratorINS0_IP6ShaderEEE4baseB7v160006Ev, symObjAddr: 0x3AAC, symBinAddr: 0x10000AE08, symSize: 0x24 }
  - { offsetInCU: 0x981C, offset: 0x14B62, size: 0x8, addend: 0x0, symName: __ZNSt3__119__to_address_helperINS_16reverse_iteratorINS1_IP6ShaderEEEEvE6__callB7v160006ERKS5_, symObjAddr: 0x3AD0, symBinAddr: 0x10000AE2C, symSize: 0x4C }
  - { offsetInCU: 0x983F, offset: 0x14B85, size: 0x8, addend: 0x0, symName: __ZNKSt3__116reverse_iteratorINS0_IP6ShaderEEEptB7v160006Ev, symObjAddr: 0x3B1C, symBinAddr: 0x10000AE78, symSize: 0x24 }
  - { offsetInCU: 0x9864, offset: 0x14BAA, size: 0x8, addend: 0x0, symName: __ZNKSt3__116reverse_iteratorINS0_IP6ShaderEEEdeB7v160006Ev, symObjAddr: 0x3B40, symBinAddr: 0x10000AE9C, symSize: 0x34 }
  - { offsetInCU: 0x9897, offset: 0x14BDD, size: 0x8, addend: 0x0, symName: __ZNSt3__116reverse_iteratorIP6ShaderEmmB7v160006Ev, symObjAddr: 0x3B74, symBinAddr: 0x10000AED0, symSize: 0x20 }
  - { offsetInCU: 0x98BC, offset: 0x14C02, size: 0x8, addend: 0x0, symName: __ZNSt3__116reverse_iteratorINS0_IP6ShaderEEEC2B7v160006ES3_, symObjAddr: 0x3B94, symBinAddr: 0x10000AEF0, symSize: 0x2C }
  - { offsetInCU: 0x98F3, offset: 0x14C39, size: 0x8, addend: 0x0, symName: __ZNSt3__116reverse_iteratorIP6ShaderEC2B7v160006ES2_, symObjAddr: 0x3BC0, symBinAddr: 0x10000AF1C, symSize: 0x28 }
  - { offsetInCU: 0x992A, offset: 0x14C70, size: 0x8, addend: 0x0, symName: __ZNSt3__114__split_bufferI6ShaderRNS_9allocatorIS1_EEED2Ev, symObjAddr: 0x3BE8, symBinAddr: 0x10000AF44, symSize: 0x80 }
  - { offsetInCU: 0x9955, offset: 0x14C9B, size: 0x8, addend: 0x0, symName: __ZNSt3__114__split_bufferI6ShaderRNS_9allocatorIS1_EEE5clearB7v160006Ev, symObjAddr: 0x3C68, symBinAddr: 0x10000AFC4, symSize: 0x28 }
  - { offsetInCU: 0x997A, offset: 0x14CC0, size: 0x8, addend: 0x0, symName: __ZNKSt3__114__split_bufferI6ShaderRNS_9allocatorIS1_EEE8capacityB7v160006Ev, symObjAddr: 0x3C90, symBinAddr: 0x10000AFEC, symSize: 0x40 }
  - { offsetInCU: 0x999F, offset: 0x14CE5, size: 0x8, addend: 0x0, symName: __ZNSt3__114__split_bufferI6ShaderRNS_9allocatorIS1_EEE17__destruct_at_endB7v160006EPS1_, symObjAddr: 0x3CD0, symBinAddr: 0x10000B02C, symSize: 0x2C }
  - { offsetInCU: 0x99D1, offset: 0x14D17, size: 0x8, addend: 0x0, symName: __ZNSt3__114__split_bufferI6ShaderRNS_9allocatorIS1_EEE17__destruct_at_endB7v160006EPS1_NS_17integral_constantIbLb0EEE, symObjAddr: 0x3CFC, symBinAddr: 0x10000B058, symSize: 0x94 }
  - { offsetInCU: 0x9A12, offset: 0x14D58, size: 0x8, addend: 0x0, symName: __ZNKSt3__114__split_bufferI6ShaderRNS_9allocatorIS1_EEE9__end_capB7v160006Ev, symObjAddr: 0x3D90, symBinAddr: 0x10000B0EC, symSize: 0x28 }
  - { offsetInCU: 0x9A37, offset: 0x14D7D, size: 0x8, addend: 0x0, symName: __ZNKSt3__117__compressed_pairIP6ShaderRNS_9allocatorIS1_EEE5firstB7v160006Ev, symObjAddr: 0x3DB8, symBinAddr: 0x10000B114, symSize: 0x24 }
...
